ARM GAS  C:\Users\kbuchi\AppData\Local\Temp\ccfpF8mx.s 			page 1


   1              		.cpu cortex-m0
   2              		.fpu softvfp
   3              		.eabi_attribute 20, 1
   4              		.eabi_attribute 21, 1
   5              		.eabi_attribute 23, 3
   6              		.eabi_attribute 24, 1
   7              		.eabi_attribute 25, 1
   8              		.eabi_attribute 26, 1
   9              		.eabi_attribute 30, 1
  10              		.eabi_attribute 34, 0
  11              		.eabi_attribute 18, 4
  12              		.code	16
  13              		.file	"Comp_0.c"
  14              		.text
  15              	.Ltext0:
  16              		.cfi_sections	.debug_frame
  17              		.section	.text.Comp_0_Init,"ax",%progbits
  18              		.align	2
  19              		.global	Comp_0_Init
  20              		.code	16
  21              		.thumb_func
  22              		.type	Comp_0_Init, %function
  23              	Comp_0_Init:
  24              	.LFB1:
  25              		.file 1 ".\\Generated_Source\\PSoC4\\Comp_0.c"
   1:.\Generated_Source\PSoC4/Comp_0.c **** /*******************************************************************************
   2:.\Generated_Source\PSoC4/Comp_0.c **** * File Name: Comp_0.c
   3:.\Generated_Source\PSoC4/Comp_0.c **** * Version 2.0
   4:.\Generated_Source\PSoC4/Comp_0.c **** *
   5:.\Generated_Source\PSoC4/Comp_0.c **** * Description:
   6:.\Generated_Source\PSoC4/Comp_0.c **** *  This file provides the source code to the API for the Low Power Comparator
   7:.\Generated_Source\PSoC4/Comp_0.c **** *  component.
   8:.\Generated_Source\PSoC4/Comp_0.c **** *
   9:.\Generated_Source\PSoC4/Comp_0.c **** * Note:
  10:.\Generated_Source\PSoC4/Comp_0.c **** *  None
  11:.\Generated_Source\PSoC4/Comp_0.c **** *
  12:.\Generated_Source\PSoC4/Comp_0.c **** ********************************************************************************
  13:.\Generated_Source\PSoC4/Comp_0.c **** * Copyright 2013-2014, Cypress Semiconductor Corporation.  All rights reserved.
  14:.\Generated_Source\PSoC4/Comp_0.c **** * You may use this file only in accordance with the license, terms, conditions,
  15:.\Generated_Source\PSoC4/Comp_0.c **** * disclaimers, and limitations in the end user license agreement accompanying
  16:.\Generated_Source\PSoC4/Comp_0.c **** * the software package with which this file was provided.
  17:.\Generated_Source\PSoC4/Comp_0.c **** *******************************************************************************/
  18:.\Generated_Source\PSoC4/Comp_0.c **** 
  19:.\Generated_Source\PSoC4/Comp_0.c **** #include "Comp_0.h"
  20:.\Generated_Source\PSoC4/Comp_0.c **** #include "CyLib.h"
  21:.\Generated_Source\PSoC4/Comp_0.c **** #include "cyPm.h"
  22:.\Generated_Source\PSoC4/Comp_0.c **** 
  23:.\Generated_Source\PSoC4/Comp_0.c **** uint8 Comp_0_initVar = 0u;
  24:.\Generated_Source\PSoC4/Comp_0.c **** static uint32 Comp_0_internalIntr = 0u;
  25:.\Generated_Source\PSoC4/Comp_0.c **** #if(Comp_0_CY_LPCOMP_V2)
  26:.\Generated_Source\PSoC4/Comp_0.c ****     /* This variable saves INTR_MASK register since it get reset after wakeup 
  27:.\Generated_Source\PSoC4/Comp_0.c ****     * from Hibernate. Attribute CY_NOINIT puts SRAM variable in memory section 
  28:.\Generated_Source\PSoC4/Comp_0.c ****     * which is retained in low power modes 
  29:.\Generated_Source\PSoC4/Comp_0.c ****     */
  30:.\Generated_Source\PSoC4/Comp_0.c ****     CY_NOINIT static uint32 Comp_0_intrMaskRegState;
  31:.\Generated_Source\PSoC4/Comp_0.c **** #endif /* (Comp_0_CY_LPCOMP_V2) */
  32:.\Generated_Source\PSoC4/Comp_0.c **** 
ARM GAS  C:\Users\kbuchi\AppData\Local\Temp\ccfpF8mx.s 			page 2


  33:.\Generated_Source\PSoC4/Comp_0.c **** 
  34:.\Generated_Source\PSoC4/Comp_0.c **** /*******************************************************************************
  35:.\Generated_Source\PSoC4/Comp_0.c **** * Function Name: Comp_0_Start
  36:.\Generated_Source\PSoC4/Comp_0.c **** ********************************************************************************
  37:.\Generated_Source\PSoC4/Comp_0.c **** *
  38:.\Generated_Source\PSoC4/Comp_0.c **** * Summary:
  39:.\Generated_Source\PSoC4/Comp_0.c **** *  Performs all of the required initialization for the component and enables
  40:.\Generated_Source\PSoC4/Comp_0.c **** *  power to the block. The first time the routine is executed, the component is
  41:.\Generated_Source\PSoC4/Comp_0.c **** *  initialized to the configuration from the customizer. When called to restart
  42:.\Generated_Source\PSoC4/Comp_0.c **** *  the comparator following a Comp_0_Stop() call, the current
  43:.\Generated_Source\PSoC4/Comp_0.c **** *  component parameter settings are retained.
  44:.\Generated_Source\PSoC4/Comp_0.c **** *
  45:.\Generated_Source\PSoC4/Comp_0.c **** * Parameters:
  46:.\Generated_Source\PSoC4/Comp_0.c **** *   None
  47:.\Generated_Source\PSoC4/Comp_0.c **** *
  48:.\Generated_Source\PSoC4/Comp_0.c **** * Return:
  49:.\Generated_Source\PSoC4/Comp_0.c **** *  None
  50:.\Generated_Source\PSoC4/Comp_0.c **** *
  51:.\Generated_Source\PSoC4/Comp_0.c **** * Global variables:
  52:.\Generated_Source\PSoC4/Comp_0.c **** *  Comp_0_initVar: Is modified when this function is called for the
  53:.\Generated_Source\PSoC4/Comp_0.c **** *   first time. Is used to ensure that initialization happens only once.
  54:.\Generated_Source\PSoC4/Comp_0.c **** *
  55:.\Generated_Source\PSoC4/Comp_0.c **** *******************************************************************************/
  56:.\Generated_Source\PSoC4/Comp_0.c **** void Comp_0_Start(void)
  57:.\Generated_Source\PSoC4/Comp_0.c **** {
  58:.\Generated_Source\PSoC4/Comp_0.c ****     if(0u == Comp_0_initVar)
  59:.\Generated_Source\PSoC4/Comp_0.c ****     {
  60:.\Generated_Source\PSoC4/Comp_0.c ****         Comp_0_Init();
  61:.\Generated_Source\PSoC4/Comp_0.c ****         Comp_0_initVar = 1u;
  62:.\Generated_Source\PSoC4/Comp_0.c ****     }
  63:.\Generated_Source\PSoC4/Comp_0.c ****     Comp_0_Enable();
  64:.\Generated_Source\PSoC4/Comp_0.c **** }
  65:.\Generated_Source\PSoC4/Comp_0.c **** 
  66:.\Generated_Source\PSoC4/Comp_0.c **** 
  67:.\Generated_Source\PSoC4/Comp_0.c **** /*******************************************************************************
  68:.\Generated_Source\PSoC4/Comp_0.c **** * Function Name: Comp_0_Init
  69:.\Generated_Source\PSoC4/Comp_0.c **** ********************************************************************************
  70:.\Generated_Source\PSoC4/Comp_0.c **** *
  71:.\Generated_Source\PSoC4/Comp_0.c **** * Summary:
  72:.\Generated_Source\PSoC4/Comp_0.c **** *  Initializes or restores the component according to the customizer settings.
  73:.\Generated_Source\PSoC4/Comp_0.c **** *  It is not necessary to call Comp_0_Init() because the
  74:.\Generated_Source\PSoC4/Comp_0.c **** *  Comp_0_Start() API calls this function and is the preferred method
  75:.\Generated_Source\PSoC4/Comp_0.c **** *  to begin component operation.
  76:.\Generated_Source\PSoC4/Comp_0.c **** *
  77:.\Generated_Source\PSoC4/Comp_0.c **** * Parameters:
  78:.\Generated_Source\PSoC4/Comp_0.c **** *  None
  79:.\Generated_Source\PSoC4/Comp_0.c **** *
  80:.\Generated_Source\PSoC4/Comp_0.c **** * Return:
  81:.\Generated_Source\PSoC4/Comp_0.c **** *  None
  82:.\Generated_Source\PSoC4/Comp_0.c **** *
  83:.\Generated_Source\PSoC4/Comp_0.c **** *******************************************************************************/
  84:.\Generated_Source\PSoC4/Comp_0.c **** void Comp_0_Init(void)
  85:.\Generated_Source\PSoC4/Comp_0.c **** {
  26              		.loc 1 85 0
  27              		.cfi_startproc
  28 0000 08B5     		push	{r3, lr}
  29              		.cfi_def_cfa_offset 8
ARM GAS  C:\Users\kbuchi\AppData\Local\Temp\ccfpF8mx.s 			page 3


  30              		.cfi_offset 3, -8
  31              		.cfi_offset 14, -4
  86:.\Generated_Source\PSoC4/Comp_0.c ****     uint8 enableInterrupts;
  87:.\Generated_Source\PSoC4/Comp_0.c **** 
  88:.\Generated_Source\PSoC4/Comp_0.c ****     enableInterrupts = CyEnterCriticalSection();
  32              		.loc 1 88 0
  33 0002 FFF7FEFF 		bl	CyEnterCriticalSection
  34              	.LVL0:
  89:.\Generated_Source\PSoC4/Comp_0.c ****     Comp_0_CONFIG_REG |= Comp_0_CONFIG_REG_DEFAULT;
  35              		.loc 1 89 0
  36 0006 044B     		ldr	r3, .L2
  37 0008 1968     		ldr	r1, [r3]
  38 000a 3122     		mov	r2, #49
  39 000c 0A43     		orr	r2, r1
  40 000e 1A60     		str	r2, [r3]
  90:.\Generated_Source\PSoC4/Comp_0.c ****     
  91:.\Generated_Source\PSoC4/Comp_0.c ****     #if (Comp_0_CY_LPCOMP_V2)
  92:.\Generated_Source\PSoC4/Comp_0.c ****         if (CySysPmGetResetReason() == CY_PM_RESET_REASON_WAKEUP_HIB)
  93:.\Generated_Source\PSoC4/Comp_0.c ****         {
  94:.\Generated_Source\PSoC4/Comp_0.c ****             /* Restore the INTR_MASK register state since it get reset after 
  95:.\Generated_Source\PSoC4/Comp_0.c ****             * wakeup from Hibernate.  
  96:.\Generated_Source\PSoC4/Comp_0.c ****             */
  97:.\Generated_Source\PSoC4/Comp_0.c ****             Comp_0_INTR_MASK_REG |= Comp_0_intrMaskRegState;  
  98:.\Generated_Source\PSoC4/Comp_0.c ****         }
  99:.\Generated_Source\PSoC4/Comp_0.c ****         else
 100:.\Generated_Source\PSoC4/Comp_0.c ****         {
 101:.\Generated_Source\PSoC4/Comp_0.c ****             Comp_0_INTR_MASK_REG |= Comp_0_INTR_MASK_REG_DEFAULT;    
 102:.\Generated_Source\PSoC4/Comp_0.c ****             Comp_0_intrMaskRegState = Comp_0_INTR_MASK_REG;
 103:.\Generated_Source\PSoC4/Comp_0.c ****         }
 104:.\Generated_Source\PSoC4/Comp_0.c ****     #endif /* (Comp_0_CY_LPCOMP_V2) */
 105:.\Generated_Source\PSoC4/Comp_0.c ****     CyExitCriticalSection(enableInterrupts);
  41              		.loc 1 105 0
  42 0010 FFF7FEFF 		bl	CyExitCriticalSection
  43              	.LVL1:
 106:.\Generated_Source\PSoC4/Comp_0.c **** }
  44              		.loc 1 106 0
  45              		@ sp needed
  46 0014 08BD     		pop	{r3, pc}
  47              	.L3:
  48 0016 C046     		.align	2
  49              	.L2:
  50 0018 04000A40 		.word	1074397188
  51              		.cfi_endproc
  52              	.LFE1:
  53              		.size	Comp_0_Init, .-Comp_0_Init
  54              		.section	.text.Comp_0_Enable,"ax",%progbits
  55              		.align	2
  56              		.global	Comp_0_Enable
  57              		.code	16
  58              		.thumb_func
  59              		.type	Comp_0_Enable, %function
  60              	Comp_0_Enable:
  61              	.LFB2:
 107:.\Generated_Source\PSoC4/Comp_0.c **** 
 108:.\Generated_Source\PSoC4/Comp_0.c **** 
 109:.\Generated_Source\PSoC4/Comp_0.c **** /*******************************************************************************
 110:.\Generated_Source\PSoC4/Comp_0.c **** * Function Name: Comp_0_Enable
ARM GAS  C:\Users\kbuchi\AppData\Local\Temp\ccfpF8mx.s 			page 4


 111:.\Generated_Source\PSoC4/Comp_0.c **** ********************************************************************************
 112:.\Generated_Source\PSoC4/Comp_0.c **** *
 113:.\Generated_Source\PSoC4/Comp_0.c **** * Summary:
 114:.\Generated_Source\PSoC4/Comp_0.c **** *  Activates the hardware and begins component operation. It is not necessary
 115:.\Generated_Source\PSoC4/Comp_0.c **** *  to call Comp_0_Enable() because the Comp_0_Start() API
 116:.\Generated_Source\PSoC4/Comp_0.c **** *  calls this function, which is the preferred method to begin component
 117:.\Generated_Source\PSoC4/Comp_0.c **** *  operation.
 118:.\Generated_Source\PSoC4/Comp_0.c **** *
 119:.\Generated_Source\PSoC4/Comp_0.c **** * Parameters:
 120:.\Generated_Source\PSoC4/Comp_0.c **** *  None
 121:.\Generated_Source\PSoC4/Comp_0.c **** *
 122:.\Generated_Source\PSoC4/Comp_0.c **** * Return:
 123:.\Generated_Source\PSoC4/Comp_0.c **** *  None
 124:.\Generated_Source\PSoC4/Comp_0.c **** *
 125:.\Generated_Source\PSoC4/Comp_0.c **** *******************************************************************************/
 126:.\Generated_Source\PSoC4/Comp_0.c **** void Comp_0_Enable(void)
 127:.\Generated_Source\PSoC4/Comp_0.c **** {
  62              		.loc 1 127 0
  63              		.cfi_startproc
  64 0000 08B5     		push	{r3, lr}
  65              		.cfi_def_cfa_offset 8
  66              		.cfi_offset 3, -8
  67              		.cfi_offset 14, -4
 128:.\Generated_Source\PSoC4/Comp_0.c ****     uint8 enableInterrupts;
 129:.\Generated_Source\PSoC4/Comp_0.c ****     
 130:.\Generated_Source\PSoC4/Comp_0.c ****     enableInterrupts = CyEnterCriticalSection();
  68              		.loc 1 130 0
  69 0002 FFF7FEFF 		bl	CyEnterCriticalSection
  70              	.LVL2:
 131:.\Generated_Source\PSoC4/Comp_0.c ****     Comp_0_CONFIG_REG |= Comp_0_CONFIG_EN;
  71              		.loc 1 131 0
  72 0006 064B     		ldr	r3, .L5
  73 0008 1968     		ldr	r1, [r3]
  74 000a 8022     		mov	r2, #128
  75 000c 0A43     		orr	r2, r1
  76 000e 1A60     		str	r2, [r3]
 132:.\Generated_Source\PSoC4/Comp_0.c ****     
 133:.\Generated_Source\PSoC4/Comp_0.c ****     /*******************************************************
 134:.\Generated_Source\PSoC4/Comp_0.c ****     * When the Enable() API is called the CONFIG_EN bit is set. 
 135:.\Generated_Source\PSoC4/Comp_0.c ****     * This can cause fake interrupt because of the output delay 
 136:.\Generated_Source\PSoC4/Comp_0.c ****     * of the analog. This requires setting the CONFIG_INTR bits 
 137:.\Generated_Source\PSoC4/Comp_0.c ****     * after the CONFIG_EN bit is set.
 138:.\Generated_Source\PSoC4/Comp_0.c ****     *******************************************************/
 139:.\Generated_Source\PSoC4/Comp_0.c ****     Comp_0_CONFIG_REG |= Comp_0_internalIntr;
  77              		.loc 1 139 0
  78 0010 1968     		ldr	r1, [r3]
  79 0012 044A     		ldr	r2, .L5+4
  80 0014 1268     		ldr	r2, [r2]
  81 0016 0A43     		orr	r2, r1
  82 0018 1A60     		str	r2, [r3]
 140:.\Generated_Source\PSoC4/Comp_0.c ****     CyExitCriticalSection(enableInterrupts);
  83              		.loc 1 140 0
  84 001a FFF7FEFF 		bl	CyExitCriticalSection
  85              	.LVL3:
 141:.\Generated_Source\PSoC4/Comp_0.c **** }
  86              		.loc 1 141 0
  87              		@ sp needed
ARM GAS  C:\Users\kbuchi\AppData\Local\Temp\ccfpF8mx.s 			page 5


  88 001e 08BD     		pop	{r3, pc}
  89              	.L6:
  90              		.align	2
  91              	.L5:
  92 0020 04000A40 		.word	1074397188
  93 0024 00000000 		.word	.LANCHOR0
  94              		.cfi_endproc
  95              	.LFE2:
  96              		.size	Comp_0_Enable, .-Comp_0_Enable
  97              		.section	.text.Comp_0_Start,"ax",%progbits
  98              		.align	2
  99              		.global	Comp_0_Start
 100              		.code	16
 101              		.thumb_func
 102              		.type	Comp_0_Start, %function
 103              	Comp_0_Start:
 104              	.LFB0:
  57:.\Generated_Source\PSoC4/Comp_0.c **** {
 105              		.loc 1 57 0
 106              		.cfi_startproc
 107 0000 08B5     		push	{r3, lr}
 108              		.cfi_def_cfa_offset 8
 109              		.cfi_offset 3, -8
 110              		.cfi_offset 14, -4
  58:.\Generated_Source\PSoC4/Comp_0.c ****     if(0u == Comp_0_initVar)
 111              		.loc 1 58 0
 112 0002 064B     		ldr	r3, .L9
 113 0004 1B79     		ldrb	r3, [r3, #4]
 114 0006 002B     		cmp	r3, #0
 115 0008 04D1     		bne	.L8
  60:.\Generated_Source\PSoC4/Comp_0.c ****         Comp_0_Init();
 116              		.loc 1 60 0
 117 000a FFF7FEFF 		bl	Comp_0_Init
 118              	.LVL4:
  61:.\Generated_Source\PSoC4/Comp_0.c ****         Comp_0_initVar = 1u;
 119              		.loc 1 61 0
 120 000e 0122     		mov	r2, #1
 121 0010 024B     		ldr	r3, .L9
 122 0012 1A71     		strb	r2, [r3, #4]
 123              	.L8:
  63:.\Generated_Source\PSoC4/Comp_0.c ****     Comp_0_Enable();
 124              		.loc 1 63 0
 125 0014 FFF7FEFF 		bl	Comp_0_Enable
 126              	.LVL5:
  64:.\Generated_Source\PSoC4/Comp_0.c **** }
 127              		.loc 1 64 0
 128              		@ sp needed
 129 0018 08BD     		pop	{r3, pc}
 130              	.L10:
 131 001a C046     		.align	2
 132              	.L9:
 133 001c 00000000 		.word	.LANCHOR0
 134              		.cfi_endproc
 135              	.LFE0:
 136              		.size	Comp_0_Start, .-Comp_0_Start
 137              		.section	.text.Comp_0_Stop,"ax",%progbits
 138              		.align	2
ARM GAS  C:\Users\kbuchi\AppData\Local\Temp\ccfpF8mx.s 			page 6


 139              		.global	Comp_0_Stop
 140              		.code	16
 141              		.thumb_func
 142              		.type	Comp_0_Stop, %function
 143              	Comp_0_Stop:
 144              	.LFB3:
 142:.\Generated_Source\PSoC4/Comp_0.c **** 
 143:.\Generated_Source\PSoC4/Comp_0.c **** 
 144:.\Generated_Source\PSoC4/Comp_0.c **** /*******************************************************************************
 145:.\Generated_Source\PSoC4/Comp_0.c **** * Function Name: Comp_0_Stop
 146:.\Generated_Source\PSoC4/Comp_0.c **** ********************************************************************************
 147:.\Generated_Source\PSoC4/Comp_0.c **** *
 148:.\Generated_Source\PSoC4/Comp_0.c **** * Summary:
 149:.\Generated_Source\PSoC4/Comp_0.c **** *  Turns off the LP Comparator.
 150:.\Generated_Source\PSoC4/Comp_0.c **** *
 151:.\Generated_Source\PSoC4/Comp_0.c **** * Parameters:
 152:.\Generated_Source\PSoC4/Comp_0.c **** *  None
 153:.\Generated_Source\PSoC4/Comp_0.c **** *
 154:.\Generated_Source\PSoC4/Comp_0.c **** * Return:
 155:.\Generated_Source\PSoC4/Comp_0.c **** *  None
 156:.\Generated_Source\PSoC4/Comp_0.c **** *
 157:.\Generated_Source\PSoC4/Comp_0.c **** * Side Effects:
 158:.\Generated_Source\PSoC4/Comp_0.c **** *  The function doesn't change component Speed settings.
 159:.\Generated_Source\PSoC4/Comp_0.c **** *
 160:.\Generated_Source\PSoC4/Comp_0.c **** *******************************************************************************/
 161:.\Generated_Source\PSoC4/Comp_0.c **** void Comp_0_Stop(void)
 162:.\Generated_Source\PSoC4/Comp_0.c **** {
 145              		.loc 1 162 0
 146              		.cfi_startproc
 147 0000 08B5     		push	{r3, lr}
 148              		.cfi_def_cfa_offset 8
 149              		.cfi_offset 3, -8
 150              		.cfi_offset 14, -4
 163:.\Generated_Source\PSoC4/Comp_0.c ****     uint8 enableInterrupts;
 164:.\Generated_Source\PSoC4/Comp_0.c ****     
 165:.\Generated_Source\PSoC4/Comp_0.c ****     enableInterrupts = CyEnterCriticalSection();
 151              		.loc 1 165 0
 152 0002 FFF7FEFF 		bl	CyEnterCriticalSection
 153              	.LVL6:
 166:.\Generated_Source\PSoC4/Comp_0.c ****     #if (Comp_0_CY_LPCOMP_V0)
 167:.\Generated_Source\PSoC4/Comp_0.c ****         /*******************************************************
 168:.\Generated_Source\PSoC4/Comp_0.c ****         * When the Stop() API is called the CONFIG_EN bit is 
 169:.\Generated_Source\PSoC4/Comp_0.c ****         * cleared. This causes the output of the comparator to go 
 170:.\Generated_Source\PSoC4/Comp_0.c ****         * low. If the comparator output was high and the Interrupt 
 171:.\Generated_Source\PSoC4/Comp_0.c ****         * Configuration is set for Falling edge disabling the 
 172:.\Generated_Source\PSoC4/Comp_0.c ****         * comparator will cause an fake interrupt. This requires 
 173:.\Generated_Source\PSoC4/Comp_0.c ****         * to clear the CONFIG_INTR bits before the CONFIG_EN bit 
 174:.\Generated_Source\PSoC4/Comp_0.c ****         * is cleared.
 175:.\Generated_Source\PSoC4/Comp_0.c ****         *******************************************************/
 176:.\Generated_Source\PSoC4/Comp_0.c ****         Comp_0_CONFIG_REG &= (uint32)~Comp_0_CONFIG_INTR_MASK;
 154              		.loc 1 176 0
 155 0006 064B     		ldr	r3, .L12
 156 0008 1A68     		ldr	r2, [r3]
 157 000a 3021     		mov	r1, #48
 158 000c 8A43     		bic	r2, r1
 159 000e 1A60     		str	r2, [r3]
 177:.\Generated_Source\PSoC4/Comp_0.c ****     #endif /* (Comp_0_CY_LPCOMP_V0) */
ARM GAS  C:\Users\kbuchi\AppData\Local\Temp\ccfpF8mx.s 			page 7


 178:.\Generated_Source\PSoC4/Comp_0.c **** 
 179:.\Generated_Source\PSoC4/Comp_0.c ****     Comp_0_CONFIG_REG &= (uint32)~Comp_0_CONFIG_EN;
 160              		.loc 1 179 0
 161 0010 1A68     		ldr	r2, [r3]
 162 0012 8021     		mov	r1, #128
 163 0014 8A43     		bic	r2, r1
 164 0016 1A60     		str	r2, [r3]
 180:.\Generated_Source\PSoC4/Comp_0.c ****     CyExitCriticalSection(enableInterrupts);
 165              		.loc 1 180 0
 166 0018 FFF7FEFF 		bl	CyExitCriticalSection
 167              	.LVL7:
 181:.\Generated_Source\PSoC4/Comp_0.c **** }
 168              		.loc 1 181 0
 169              		@ sp needed
 170 001c 08BD     		pop	{r3, pc}
 171              	.L13:
 172 001e C046     		.align	2
 173              	.L12:
 174 0020 04000A40 		.word	1074397188
 175              		.cfi_endproc
 176              	.LFE3:
 177              		.size	Comp_0_Stop, .-Comp_0_Stop
 178              		.section	.text.Comp_0_SetSpeed,"ax",%progbits
 179              		.align	2
 180              		.global	Comp_0_SetSpeed
 181              		.code	16
 182              		.thumb_func
 183              		.type	Comp_0_SetSpeed, %function
 184              	Comp_0_SetSpeed:
 185              	.LFB4:
 182:.\Generated_Source\PSoC4/Comp_0.c **** 
 183:.\Generated_Source\PSoC4/Comp_0.c **** 
 184:.\Generated_Source\PSoC4/Comp_0.c **** /*******************************************************************************
 185:.\Generated_Source\PSoC4/Comp_0.c **** * Function Name: Comp_0_SetSpeed
 186:.\Generated_Source\PSoC4/Comp_0.c **** *
 187:.\Generated_Source\PSoC4/Comp_0.c **** * Summary:
 188:.\Generated_Source\PSoC4/Comp_0.c **** *  Sets the drive power and speed to one of three settings.
 189:.\Generated_Source\PSoC4/Comp_0.c **** *
 190:.\Generated_Source\PSoC4/Comp_0.c **** * Parameters:
 191:.\Generated_Source\PSoC4/Comp_0.c **** *  uint32 speed: Sets operation mode of the component:
 192:.\Generated_Source\PSoC4/Comp_0.c **** *   Comp_0_LOW_SPEED  - Slow/ultra low 
 193:.\Generated_Source\PSoC4/Comp_0.c **** *   Comp_0_MED_SPEED  - Medium/low 
 194:.\Generated_Source\PSoC4/Comp_0.c **** *   Comp_0_HIGH_SPEED - Fast/normal 
 195:.\Generated_Source\PSoC4/Comp_0.c **** *
 196:.\Generated_Source\PSoC4/Comp_0.c **** * Return:
 197:.\Generated_Source\PSoC4/Comp_0.c **** *  None
 198:.\Generated_Source\PSoC4/Comp_0.c **** *
 199:.\Generated_Source\PSoC4/Comp_0.c **** *******************************************************************************/
 200:.\Generated_Source\PSoC4/Comp_0.c **** void Comp_0_SetSpeed(uint32 speed)
 201:.\Generated_Source\PSoC4/Comp_0.c **** {
 186              		.loc 1 201 0
 187              		.cfi_startproc
 188              	.LVL8:
 189 0000 10B5     		push	{r4, lr}
 190              		.cfi_def_cfa_offset 8
 191              		.cfi_offset 4, -8
 192              		.cfi_offset 14, -4
ARM GAS  C:\Users\kbuchi\AppData\Local\Temp\ccfpF8mx.s 			page 8


 193 0002 041C     		mov	r4, r0
 202:.\Generated_Source\PSoC4/Comp_0.c ****     uint32 config;
 203:.\Generated_Source\PSoC4/Comp_0.c ****     uint8 enableInterrupts;
 204:.\Generated_Source\PSoC4/Comp_0.c ****     
 205:.\Generated_Source\PSoC4/Comp_0.c ****     enableInterrupts = CyEnterCriticalSection();
 194              		.loc 1 205 0
 195 0004 FFF7FEFF 		bl	CyEnterCriticalSection
 196              	.LVL9:
 206:.\Generated_Source\PSoC4/Comp_0.c ****     config = Comp_0_CONFIG_REG & (uint32)~Comp_0_CONFIG_SPEED_MODE_MASK;
 197              		.loc 1 206 0
 198 0008 044B     		ldr	r3, .L15
 199 000a 1968     		ldr	r1, [r3]
 200 000c 0322     		mov	r2, #3
 201 000e 9143     		bic	r1, r2
 202              	.LVL10:
 207:.\Generated_Source\PSoC4/Comp_0.c ****     Comp_0_CONFIG_REG = config | Comp_0_GET_CONFIG_SPEED_MODE(speed);
 203              		.loc 1 207 0
 204 0010 2240     		and	r2, r4
 205 0012 0A43     		orr	r2, r1
 206 0014 1A60     		str	r2, [r3]
 208:.\Generated_Source\PSoC4/Comp_0.c ****     CyExitCriticalSection(enableInterrupts);
 207              		.loc 1 208 0
 208 0016 FFF7FEFF 		bl	CyExitCriticalSection
 209              	.LVL11:
 209:.\Generated_Source\PSoC4/Comp_0.c **** }
 210              		.loc 1 209 0
 211              		@ sp needed
 212              	.LVL12:
 213 001a 10BD     		pop	{r4, pc}
 214              	.L16:
 215              		.align	2
 216              	.L15:
 217 001c 04000A40 		.word	1074397188
 218              		.cfi_endproc
 219              	.LFE4:
 220              		.size	Comp_0_SetSpeed, .-Comp_0_SetSpeed
 221              		.section	.text.Comp_0_SetInterruptMode,"ax",%progbits
 222              		.align	2
 223              		.global	Comp_0_SetInterruptMode
 224              		.code	16
 225              		.thumb_func
 226              		.type	Comp_0_SetInterruptMode, %function
 227              	Comp_0_SetInterruptMode:
 228              	.LFB5:
 210:.\Generated_Source\PSoC4/Comp_0.c **** 
 211:.\Generated_Source\PSoC4/Comp_0.c **** 
 212:.\Generated_Source\PSoC4/Comp_0.c **** /*******************************************************************************
 213:.\Generated_Source\PSoC4/Comp_0.c **** * Function Name: Comp_0_SetInterruptMode
 214:.\Generated_Source\PSoC4/Comp_0.c **** ********************************************************************************
 215:.\Generated_Source\PSoC4/Comp_0.c **** *
 216:.\Generated_Source\PSoC4/Comp_0.c **** * Summary:
 217:.\Generated_Source\PSoC4/Comp_0.c **** *  Sets the interrupt edge detect mode. This also controls the value provided
 218:.\Generated_Source\PSoC4/Comp_0.c **** *  on the output.
 219:.\Generated_Source\PSoC4/Comp_0.c **** *
 220:.\Generated_Source\PSoC4/Comp_0.c **** * Parameters:
 221:.\Generated_Source\PSoC4/Comp_0.c **** *  uint32 mode: Enumerated edge detect mode value:
 222:.\Generated_Source\PSoC4/Comp_0.c **** *  Comp_0_INTR_DISABLE - Disable
ARM GAS  C:\Users\kbuchi\AppData\Local\Temp\ccfpF8mx.s 			page 9


 223:.\Generated_Source\PSoC4/Comp_0.c **** *  Comp_0_INTR_RISING  - Rising edge detect
 224:.\Generated_Source\PSoC4/Comp_0.c **** *  Comp_0_INTR_FALLING - Falling edge detect
 225:.\Generated_Source\PSoC4/Comp_0.c **** *  Comp_0_INTR_BOTH    - Detect both edges
 226:.\Generated_Source\PSoC4/Comp_0.c **** *
 227:.\Generated_Source\PSoC4/Comp_0.c **** * Return:
 228:.\Generated_Source\PSoC4/Comp_0.c **** *  None
 229:.\Generated_Source\PSoC4/Comp_0.c **** *
 230:.\Generated_Source\PSoC4/Comp_0.c **** *******************************************************************************/
 231:.\Generated_Source\PSoC4/Comp_0.c **** void Comp_0_SetInterruptMode(uint32 mode)
 232:.\Generated_Source\PSoC4/Comp_0.c **** {
 229              		.loc 1 232 0
 230              		.cfi_startproc
 231              	.LVL13:
 232 0000 38B5     		push	{r3, r4, r5, lr}
 233              		.cfi_def_cfa_offset 16
 234              		.cfi_offset 3, -16
 235              		.cfi_offset 4, -12
 236              		.cfi_offset 5, -8
 237              		.cfi_offset 14, -4
 233:.\Generated_Source\PSoC4/Comp_0.c ****     uint32 config;
 234:.\Generated_Source\PSoC4/Comp_0.c ****     uint8 enableInterrupts;
 235:.\Generated_Source\PSoC4/Comp_0.c ****     
 236:.\Generated_Source\PSoC4/Comp_0.c ****     Comp_0_internalIntr = Comp_0_GET_CONFIG_INTR(mode);
 238              		.loc 1 236 0
 239 0002 0001     		lsl	r0, r0, #4
 240              	.LVL14:
 241 0004 3025     		mov	r5, #48
 242 0006 2840     		and	r0, r5
 243 0008 064C     		ldr	r4, .L18
 244 000a 2060     		str	r0, [r4]
 237:.\Generated_Source\PSoC4/Comp_0.c **** 
 238:.\Generated_Source\PSoC4/Comp_0.c ****     enableInterrupts = CyEnterCriticalSection();
 245              		.loc 1 238 0
 246 000c FFF7FEFF 		bl	CyEnterCriticalSection
 247              	.LVL15:
 239:.\Generated_Source\PSoC4/Comp_0.c ****     config = Comp_0_CONFIG_REG & (uint32)~Comp_0_CONFIG_INTR_MASK;
 248              		.loc 1 239 0
 249 0010 054B     		ldr	r3, .L18+4
 250 0012 1A68     		ldr	r2, [r3]
 251 0014 AA43     		bic	r2, r5
 252              	.LVL16:
 240:.\Generated_Source\PSoC4/Comp_0.c ****     Comp_0_CONFIG_REG = config | Comp_0_internalIntr;
 253              		.loc 1 240 0
 254 0016 2168     		ldr	r1, [r4]
 255 0018 0A43     		orr	r2, r1
 256              	.LVL17:
 257 001a 1A60     		str	r2, [r3]
 241:.\Generated_Source\PSoC4/Comp_0.c ****     CyExitCriticalSection(enableInterrupts);
 258              		.loc 1 241 0
 259 001c FFF7FEFF 		bl	CyExitCriticalSection
 260              	.LVL18:
 242:.\Generated_Source\PSoC4/Comp_0.c **** }
 261              		.loc 1 242 0
 262              		@ sp needed
 263 0020 38BD     		pop	{r3, r4, r5, pc}
 264              	.L19:
 265 0022 C046     		.align	2
ARM GAS  C:\Users\kbuchi\AppData\Local\Temp\ccfpF8mx.s 			page 10


 266              	.L18:
 267 0024 00000000 		.word	.LANCHOR0
 268 0028 04000A40 		.word	1074397188
 269              		.cfi_endproc
 270              	.LFE5:
 271              		.size	Comp_0_SetInterruptMode, .-Comp_0_SetInterruptMode
 272              		.section	.text.Comp_0_GetInterruptSource,"ax",%progbits
 273              		.align	2
 274              		.global	Comp_0_GetInterruptSource
 275              		.code	16
 276              		.thumb_func
 277              		.type	Comp_0_GetInterruptSource, %function
 278              	Comp_0_GetInterruptSource:
 279              	.LFB6:
 243:.\Generated_Source\PSoC4/Comp_0.c **** 
 244:.\Generated_Source\PSoC4/Comp_0.c **** 
 245:.\Generated_Source\PSoC4/Comp_0.c **** /*******************************************************************************
 246:.\Generated_Source\PSoC4/Comp_0.c **** * Function Name: Comp_0_GetInterruptSource
 247:.\Generated_Source\PSoC4/Comp_0.c **** ********************************************************************************
 248:.\Generated_Source\PSoC4/Comp_0.c **** *
 249:.\Generated_Source\PSoC4/Comp_0.c **** * Summary:
 250:.\Generated_Source\PSoC4/Comp_0.c **** *  Gets the interrupt requests. This function is for use when using the combined
 251:.\Generated_Source\PSoC4/Comp_0.c **** *  interrupt signal from the global signal reference. This function from either
 252:.\Generated_Source\PSoC4/Comp_0.c **** *  component instance can be used to determine the interrupt source for both the
 253:.\Generated_Source\PSoC4/Comp_0.c **** *  interrupts combined.
 254:.\Generated_Source\PSoC4/Comp_0.c **** *
 255:.\Generated_Source\PSoC4/Comp_0.c **** * Parameters:
 256:.\Generated_Source\PSoC4/Comp_0.c **** *  None
 257:.\Generated_Source\PSoC4/Comp_0.c **** *
 258:.\Generated_Source\PSoC4/Comp_0.c **** * Return:
 259:.\Generated_Source\PSoC4/Comp_0.c **** *  uint32: Interrupt source. Each component instance has a mask value:
 260:.\Generated_Source\PSoC4/Comp_0.c **** *  Comp_0_INTR.
 261:.\Generated_Source\PSoC4/Comp_0.c **** *
 262:.\Generated_Source\PSoC4/Comp_0.c **** *******************************************************************************/
 263:.\Generated_Source\PSoC4/Comp_0.c **** uint32 Comp_0_GetInterruptSource(void)
 264:.\Generated_Source\PSoC4/Comp_0.c **** {
 280              		.loc 1 264 0
 281              		.cfi_startproc
 265:.\Generated_Source\PSoC4/Comp_0.c ****     return (Comp_0_INTR_REG); 
 282              		.loc 1 265 0
 283 0000 014B     		ldr	r3, .L21
 284 0002 1868     		ldr	r0, [r3]
 266:.\Generated_Source\PSoC4/Comp_0.c **** }
 285              		.loc 1 266 0
 286              		@ sp needed
 287 0004 7047     		bx	lr
 288              	.L22:
 289 0006 C046     		.align	2
 290              	.L21:
 291 0008 0C000A40 		.word	1074397196
 292              		.cfi_endproc
 293              	.LFE6:
 294              		.size	Comp_0_GetInterruptSource, .-Comp_0_GetInterruptSource
 295              		.section	.text.Comp_0_ClearInterrupt,"ax",%progbits
 296              		.align	2
 297              		.global	Comp_0_ClearInterrupt
 298              		.code	16
ARM GAS  C:\Users\kbuchi\AppData\Local\Temp\ccfpF8mx.s 			page 11


 299              		.thumb_func
 300              		.type	Comp_0_ClearInterrupt, %function
 301              	Comp_0_ClearInterrupt:
 302              	.LFB7:
 267:.\Generated_Source\PSoC4/Comp_0.c **** 
 268:.\Generated_Source\PSoC4/Comp_0.c **** 
 269:.\Generated_Source\PSoC4/Comp_0.c **** /*******************************************************************************
 270:.\Generated_Source\PSoC4/Comp_0.c **** * Function Name: Comp_0_ClearInterrupt
 271:.\Generated_Source\PSoC4/Comp_0.c **** ********************************************************************************
 272:.\Generated_Source\PSoC4/Comp_0.c **** *
 273:.\Generated_Source\PSoC4/Comp_0.c **** * Summary:
 274:.\Generated_Source\PSoC4/Comp_0.c **** *  Clears the interrupt request. This function is for use when using the
 275:.\Generated_Source\PSoC4/Comp_0.c **** *  combined interrupt signal from the global signal reference. This function
 276:.\Generated_Source\PSoC4/Comp_0.c **** *  from either component instance can be used to clear either or both
 277:.\Generated_Source\PSoC4/Comp_0.c **** *  interrupts.
 278:.\Generated_Source\PSoC4/Comp_0.c **** *
 279:.\Generated_Source\PSoC4/Comp_0.c **** * Parameters:
 280:.\Generated_Source\PSoC4/Comp_0.c **** *  uint32 interruptMask: Mask of interrupts to clear. Each component instance
 281:.\Generated_Source\PSoC4/Comp_0.c **** *  has a mask value: Comp_0_INTR.
 282:.\Generated_Source\PSoC4/Comp_0.c **** *
 283:.\Generated_Source\PSoC4/Comp_0.c **** * Return:
 284:.\Generated_Source\PSoC4/Comp_0.c **** *  None
 285:.\Generated_Source\PSoC4/Comp_0.c **** *
 286:.\Generated_Source\PSoC4/Comp_0.c **** *******************************************************************************/
 287:.\Generated_Source\PSoC4/Comp_0.c **** void Comp_0_ClearInterrupt(uint32 interruptMask)
 288:.\Generated_Source\PSoC4/Comp_0.c **** {   
 303              		.loc 1 288 0
 304              		.cfi_startproc
 305              	.LVL19:
 289:.\Generated_Source\PSoC4/Comp_0.c ****     Comp_0_INTR_REG = interruptMask;
 306              		.loc 1 289 0
 307 0000 014B     		ldr	r3, .L24
 308 0002 1860     		str	r0, [r3]
 290:.\Generated_Source\PSoC4/Comp_0.c **** }
 309              		.loc 1 290 0
 310              		@ sp needed
 311 0004 7047     		bx	lr
 312              	.L25:
 313 0006 C046     		.align	2
 314              	.L24:
 315 0008 0C000A40 		.word	1074397196
 316              		.cfi_endproc
 317              	.LFE7:
 318              		.size	Comp_0_ClearInterrupt, .-Comp_0_ClearInterrupt
 319              		.section	.text.Comp_0_SetInterrupt,"ax",%progbits
 320              		.align	2
 321              		.global	Comp_0_SetInterrupt
 322              		.code	16
 323              		.thumb_func
 324              		.type	Comp_0_SetInterrupt, %function
 325              	Comp_0_SetInterrupt:
 326              	.LFB8:
 291:.\Generated_Source\PSoC4/Comp_0.c **** 
 292:.\Generated_Source\PSoC4/Comp_0.c **** 
 293:.\Generated_Source\PSoC4/Comp_0.c **** /*******************************************************************************
 294:.\Generated_Source\PSoC4/Comp_0.c **** * Function Name: Comp_0_SetInterrupt
 295:.\Generated_Source\PSoC4/Comp_0.c **** ********************************************************************************
ARM GAS  C:\Users\kbuchi\AppData\Local\Temp\ccfpF8mx.s 			page 12


 296:.\Generated_Source\PSoC4/Comp_0.c **** *
 297:.\Generated_Source\PSoC4/Comp_0.c **** * Summary:
 298:.\Generated_Source\PSoC4/Comp_0.c **** *  Sets a software interrupt request. This function is for use when using the
 299:.\Generated_Source\PSoC4/Comp_0.c **** *  combined interrupt signal from the global signal reference. This function
 300:.\Generated_Source\PSoC4/Comp_0.c **** *  from either component instance can be used to trigger either or both software
 301:.\Generated_Source\PSoC4/Comp_0.c **** *  interrupts.
 302:.\Generated_Source\PSoC4/Comp_0.c **** *
 303:.\Generated_Source\PSoC4/Comp_0.c **** * Parameters:
 304:.\Generated_Source\PSoC4/Comp_0.c **** *  uint32 interruptMask: Mask of interrupts to set. Each component instance has
 305:.\Generated_Source\PSoC4/Comp_0.c **** *  a mask value: Comp_0_INTR_SET.
 306:.\Generated_Source\PSoC4/Comp_0.c **** *
 307:.\Generated_Source\PSoC4/Comp_0.c **** * Return:
 308:.\Generated_Source\PSoC4/Comp_0.c **** *  None
 309:.\Generated_Source\PSoC4/Comp_0.c **** *
 310:.\Generated_Source\PSoC4/Comp_0.c **** *******************************************************************************/
 311:.\Generated_Source\PSoC4/Comp_0.c **** void Comp_0_SetInterrupt(uint32 interruptMask)
 312:.\Generated_Source\PSoC4/Comp_0.c **** {
 327              		.loc 1 312 0
 328              		.cfi_startproc
 329              	.LVL20:
 330 0000 10B5     		push	{r4, lr}
 331              		.cfi_def_cfa_offset 8
 332              		.cfi_offset 4, -8
 333              		.cfi_offset 14, -4
 334 0002 041C     		mov	r4, r0
 313:.\Generated_Source\PSoC4/Comp_0.c ****     uint8 enableInterrupts;
 314:.\Generated_Source\PSoC4/Comp_0.c ****     
 315:.\Generated_Source\PSoC4/Comp_0.c ****     enableInterrupts = CyEnterCriticalSection();
 335              		.loc 1 315 0
 336 0004 FFF7FEFF 		bl	CyEnterCriticalSection
 337              	.LVL21:
 316:.\Generated_Source\PSoC4/Comp_0.c ****     Comp_0_INTR_SET_REG |= interruptMask;
 338              		.loc 1 316 0
 339 0008 034B     		ldr	r3, .L27
 340 000a 1A68     		ldr	r2, [r3]
 341 000c 1443     		orr	r4, r2
 342              	.LVL22:
 343 000e 1C60     		str	r4, [r3]
 317:.\Generated_Source\PSoC4/Comp_0.c ****     CyExitCriticalSection(enableInterrupts);
 344              		.loc 1 317 0
 345 0010 FFF7FEFF 		bl	CyExitCriticalSection
 346              	.LVL23:
 318:.\Generated_Source\PSoC4/Comp_0.c **** }
 347              		.loc 1 318 0
 348              		@ sp needed
 349 0014 10BD     		pop	{r4, pc}
 350              	.L28:
 351 0016 C046     		.align	2
 352              	.L27:
 353 0018 10000A40 		.word	1074397200
 354              		.cfi_endproc
 355              	.LFE8:
 356              		.size	Comp_0_SetInterrupt, .-Comp_0_SetInterrupt
 357              		.section	.text.Comp_0_SetHysteresis,"ax",%progbits
 358              		.align	2
 359              		.global	Comp_0_SetHysteresis
 360              		.code	16
ARM GAS  C:\Users\kbuchi\AppData\Local\Temp\ccfpF8mx.s 			page 13


 361              		.thumb_func
 362              		.type	Comp_0_SetHysteresis, %function
 363              	Comp_0_SetHysteresis:
 364              	.LFB9:
 319:.\Generated_Source\PSoC4/Comp_0.c **** 
 320:.\Generated_Source\PSoC4/Comp_0.c **** 
 321:.\Generated_Source\PSoC4/Comp_0.c **** /*******************************************************************************
 322:.\Generated_Source\PSoC4/Comp_0.c **** * Function Name: Comp_0_SetHysteresis
 323:.\Generated_Source\PSoC4/Comp_0.c **** ********************************************************************************
 324:.\Generated_Source\PSoC4/Comp_0.c **** *
 325:.\Generated_Source\PSoC4/Comp_0.c **** * Summary:
 326:.\Generated_Source\PSoC4/Comp_0.c **** *  Enables or disables the hysteresis.
 327:.\Generated_Source\PSoC4/Comp_0.c **** *
 328:.\Generated_Source\PSoC4/Comp_0.c **** * Parameters:
 329:.\Generated_Source\PSoC4/Comp_0.c **** *  hysteresis: (uint32) Enables or disables the hysteresis setting.
 330:.\Generated_Source\PSoC4/Comp_0.c **** *  Comp_0_HYST_ENABLE     - Enable hysteresis
 331:.\Generated_Source\PSoC4/Comp_0.c **** *  Comp_0_HYST_DISABLE    - Disable hysteresis
 332:.\Generated_Source\PSoC4/Comp_0.c **** *
 333:.\Generated_Source\PSoC4/Comp_0.c **** * Return:
 334:.\Generated_Source\PSoC4/Comp_0.c **** *  None
 335:.\Generated_Source\PSoC4/Comp_0.c **** *
 336:.\Generated_Source\PSoC4/Comp_0.c **** *******************************************************************************/
 337:.\Generated_Source\PSoC4/Comp_0.c **** void Comp_0_SetHysteresis(uint32 hysteresis)
 338:.\Generated_Source\PSoC4/Comp_0.c **** {
 365              		.loc 1 338 0
 366              		.cfi_startproc
 367              	.LVL24:
 368 0000 10B5     		push	{r4, lr}
 369              		.cfi_def_cfa_offset 8
 370              		.cfi_offset 4, -8
 371              		.cfi_offset 14, -4
 372 0002 041C     		mov	r4, r0
 339:.\Generated_Source\PSoC4/Comp_0.c ****     uint8 enableInterrupts;
 340:.\Generated_Source\PSoC4/Comp_0.c ****     
 341:.\Generated_Source\PSoC4/Comp_0.c ****     enableInterrupts = CyEnterCriticalSection();
 373              		.loc 1 341 0
 374 0004 FFF7FEFF 		bl	CyEnterCriticalSection
 375              	.LVL25:
 342:.\Generated_Source\PSoC4/Comp_0.c ****     if(0u != hysteresis)
 376              		.loc 1 342 0
 377 0008 002C     		cmp	r4, #0
 378 000a 05D0     		beq	.L30
 343:.\Generated_Source\PSoC4/Comp_0.c ****     {
 344:.\Generated_Source\PSoC4/Comp_0.c ****         Comp_0_CONFIG_REG |= Comp_0_CONFIG_HYST;
 379              		.loc 1 344 0
 380 000c 064B     		ldr	r3, .L32
 381 000e 1968     		ldr	r1, [r3]
 382 0010 0422     		mov	r2, #4
 383 0012 0A43     		orr	r2, r1
 384 0014 1A60     		str	r2, [r3]
 385 0016 04E0     		b	.L31
 386              	.L30:
 345:.\Generated_Source\PSoC4/Comp_0.c ****     }
 346:.\Generated_Source\PSoC4/Comp_0.c ****     else
 347:.\Generated_Source\PSoC4/Comp_0.c ****     {
 348:.\Generated_Source\PSoC4/Comp_0.c ****         Comp_0_CONFIG_REG &= (uint32)~Comp_0_CONFIG_HYST;
 387              		.loc 1 348 0
ARM GAS  C:\Users\kbuchi\AppData\Local\Temp\ccfpF8mx.s 			page 14


 388 0018 034B     		ldr	r3, .L32
 389 001a 1A68     		ldr	r2, [r3]
 390 001c 0421     		mov	r1, #4
 391 001e 8A43     		bic	r2, r1
 392 0020 1A60     		str	r2, [r3]
 393              	.L31:
 349:.\Generated_Source\PSoC4/Comp_0.c ****     }
 350:.\Generated_Source\PSoC4/Comp_0.c ****     CyExitCriticalSection(enableInterrupts);
 394              		.loc 1 350 0
 395 0022 FFF7FEFF 		bl	CyExitCriticalSection
 396              	.LVL26:
 351:.\Generated_Source\PSoC4/Comp_0.c **** }
 397              		.loc 1 351 0
 398              		@ sp needed
 399              	.LVL27:
 400 0026 10BD     		pop	{r4, pc}
 401              	.L33:
 402              		.align	2
 403              	.L32:
 404 0028 04000A40 		.word	1074397188
 405              		.cfi_endproc
 406              	.LFE9:
 407              		.size	Comp_0_SetHysteresis, .-Comp_0_SetHysteresis
 408              		.section	.text.Comp_0_SetFilter,"ax",%progbits
 409              		.align	2
 410              		.global	Comp_0_SetFilter
 411              		.code	16
 412              		.thumb_func
 413              		.type	Comp_0_SetFilter, %function
 414              	Comp_0_SetFilter:
 415              	.LFB10:
 352:.\Generated_Source\PSoC4/Comp_0.c **** 
 353:.\Generated_Source\PSoC4/Comp_0.c **** 
 354:.\Generated_Source\PSoC4/Comp_0.c **** /*******************************************************************************
 355:.\Generated_Source\PSoC4/Comp_0.c **** * Function Name: Comp_0_SetFilter
 356:.\Generated_Source\PSoC4/Comp_0.c **** ********************************************************************************
 357:.\Generated_Source\PSoC4/Comp_0.c **** *
 358:.\Generated_Source\PSoC4/Comp_0.c **** * Summary:
 359:.\Generated_Source\PSoC4/Comp_0.c **** *  Enables or disables the digital filter. This still exists for saving backward 
 360:.\Generated_Source\PSoC4/Comp_0.c **** *  compatibility, but not recommended for using.
 361:.\Generated_Source\PSoC4/Comp_0.c **** *  This API is DEPRECATED and should not be used in new projects.
 362:.\Generated_Source\PSoC4/Comp_0.c **** *
 363:.\Generated_Source\PSoC4/Comp_0.c **** * Parameters:
 364:.\Generated_Source\PSoC4/Comp_0.c **** *  uint32 filter: filter enable.
 365:.\Generated_Source\PSoC4/Comp_0.c **** *  Comp_0_FILT_ENABLE  - Enable filter
 366:.\Generated_Source\PSoC4/Comp_0.c **** *  Comp_0_FILT_DISABLE - Disable filter
 367:.\Generated_Source\PSoC4/Comp_0.c **** *
 368:.\Generated_Source\PSoC4/Comp_0.c **** * Return:
 369:.\Generated_Source\PSoC4/Comp_0.c **** *  None
 370:.\Generated_Source\PSoC4/Comp_0.c **** *
 371:.\Generated_Source\PSoC4/Comp_0.c **** *******************************************************************************/
 372:.\Generated_Source\PSoC4/Comp_0.c **** void Comp_0_SetFilter(uint32 filter)
 373:.\Generated_Source\PSoC4/Comp_0.c **** {
 416              		.loc 1 373 0
 417              		.cfi_startproc
 418              	.LVL28:
 419 0000 10B5     		push	{r4, lr}
ARM GAS  C:\Users\kbuchi\AppData\Local\Temp\ccfpF8mx.s 			page 15


 420              		.cfi_def_cfa_offset 8
 421              		.cfi_offset 4, -8
 422              		.cfi_offset 14, -4
 423 0002 041C     		mov	r4, r0
 374:.\Generated_Source\PSoC4/Comp_0.c ****     uint8 enableInterrupts;
 375:.\Generated_Source\PSoC4/Comp_0.c ****     
 376:.\Generated_Source\PSoC4/Comp_0.c ****     enableInterrupts = CyEnterCriticalSection();
 424              		.loc 1 376 0
 425 0004 FFF7FEFF 		bl	CyEnterCriticalSection
 426              	.LVL29:
 377:.\Generated_Source\PSoC4/Comp_0.c ****     if( 0u != filter)
 427              		.loc 1 377 0
 428 0008 002C     		cmp	r4, #0
 429 000a 05D0     		beq	.L35
 378:.\Generated_Source\PSoC4/Comp_0.c ****     {
 379:.\Generated_Source\PSoC4/Comp_0.c ****         Comp_0_CONFIG_REG |= Comp_0_CONFIG_FILT;
 430              		.loc 1 379 0
 431 000c 064B     		ldr	r3, .L37
 432 000e 1968     		ldr	r1, [r3]
 433 0010 0822     		mov	r2, #8
 434 0012 0A43     		orr	r2, r1
 435 0014 1A60     		str	r2, [r3]
 436 0016 04E0     		b	.L36
 437              	.L35:
 380:.\Generated_Source\PSoC4/Comp_0.c ****     }
 381:.\Generated_Source\PSoC4/Comp_0.c ****     else
 382:.\Generated_Source\PSoC4/Comp_0.c ****     {
 383:.\Generated_Source\PSoC4/Comp_0.c ****         Comp_0_CONFIG_REG &= (uint32)~Comp_0_CONFIG_FILT;
 438              		.loc 1 383 0
 439 0018 034B     		ldr	r3, .L37
 440 001a 1A68     		ldr	r2, [r3]
 441 001c 0821     		mov	r1, #8
 442 001e 8A43     		bic	r2, r1
 443 0020 1A60     		str	r2, [r3]
 444              	.L36:
 384:.\Generated_Source\PSoC4/Comp_0.c ****     }
 385:.\Generated_Source\PSoC4/Comp_0.c ****     CyExitCriticalSection(enableInterrupts);
 445              		.loc 1 385 0
 446 0022 FFF7FEFF 		bl	CyExitCriticalSection
 447              	.LVL30:
 386:.\Generated_Source\PSoC4/Comp_0.c **** }
 448              		.loc 1 386 0
 449              		@ sp needed
 450              	.LVL31:
 451 0026 10BD     		pop	{r4, pc}
 452              	.L38:
 453              		.align	2
 454              	.L37:
 455 0028 04000A40 		.word	1074397188
 456              		.cfi_endproc
 457              	.LFE10:
 458              		.size	Comp_0_SetFilter, .-Comp_0_SetFilter
 459              		.section	.text.Comp_0_GetCompare,"ax",%progbits
 460              		.align	2
 461              		.global	Comp_0_GetCompare
 462              		.code	16
 463              		.thumb_func
ARM GAS  C:\Users\kbuchi\AppData\Local\Temp\ccfpF8mx.s 			page 16


 464              		.type	Comp_0_GetCompare, %function
 465              	Comp_0_GetCompare:
 466              	.LFB11:
 387:.\Generated_Source\PSoC4/Comp_0.c **** 
 388:.\Generated_Source\PSoC4/Comp_0.c **** 
 389:.\Generated_Source\PSoC4/Comp_0.c **** /*******************************************************************************
 390:.\Generated_Source\PSoC4/Comp_0.c **** * Function Name: Comp_0_GetCompare
 391:.\Generated_Source\PSoC4/Comp_0.c **** ********************************************************************************
 392:.\Generated_Source\PSoC4/Comp_0.c **** *
 393:.\Generated_Source\PSoC4/Comp_0.c **** * Summary:
 394:.\Generated_Source\PSoC4/Comp_0.c **** *  This function returns a nonzero value when the voltage connected to the
 395:.\Generated_Source\PSoC4/Comp_0.c **** *  positive input is greater than the negative input voltage.
 396:.\Generated_Source\PSoC4/Comp_0.c **** *  This function reads the direct (unflopped) comparator output which can also be 
 397:.\Generated_Source\PSoC4/Comp_0.c **** *  metastable (since it may result in incorrect data).
 398:.\Generated_Source\PSoC4/Comp_0.c **** *
 399:.\Generated_Source\PSoC4/Comp_0.c **** * Parameters:
 400:.\Generated_Source\PSoC4/Comp_0.c **** *  None
 401:.\Generated_Source\PSoC4/Comp_0.c **** *
 402:.\Generated_Source\PSoC4/Comp_0.c **** * Return:
 403:.\Generated_Source\PSoC4/Comp_0.c **** *  (uint32) Comparator output state. This value is not impacted by the interrupt
 404:.\Generated_Source\PSoC4/Comp_0.c **** *  edge detect setting:
 405:.\Generated_Source\PSoC4/Comp_0.c **** *   0 - if positive input is less than negative one.
 406:.\Generated_Source\PSoC4/Comp_0.c **** *   1 - if positive input greater than negative one.
 407:.\Generated_Source\PSoC4/Comp_0.c **** *
 408:.\Generated_Source\PSoC4/Comp_0.c **** *******************************************************************************/
 409:.\Generated_Source\PSoC4/Comp_0.c **** uint32 Comp_0_GetCompare(void)
 410:.\Generated_Source\PSoC4/Comp_0.c **** {
 467              		.loc 1 410 0
 468              		.cfi_startproc
 411:.\Generated_Source\PSoC4/Comp_0.c ****     return((uint32)((0u == (Comp_0_CONFIG_REG & Comp_0_CONFIG_OUT)) ? 0u : 1u));
 469              		.loc 1 411 0
 470 0000 024B     		ldr	r3, .L40
 471 0002 1868     		ldr	r0, [r3]
 472 0004 4006     		lsl	r0, r0, #25
 473 0006 C00F     		lsr	r0, r0, #31
 412:.\Generated_Source\PSoC4/Comp_0.c **** }
 474              		.loc 1 412 0
 475              		@ sp needed
 476 0008 7047     		bx	lr
 477              	.L41:
 478 000a C046     		.align	2
 479              	.L40:
 480 000c 04000A40 		.word	1074397188
 481              		.cfi_endproc
 482              	.LFE11:
 483              		.size	Comp_0_GetCompare, .-Comp_0_GetCompare
 484              		.section	.text.Comp_0_ZeroCal,"ax",%progbits
 485              		.align	2
 486              		.global	Comp_0_ZeroCal
 487              		.code	16
 488              		.thumb_func
 489              		.type	Comp_0_ZeroCal, %function
 490              	Comp_0_ZeroCal:
 491              	.LFB12:
 413:.\Generated_Source\PSoC4/Comp_0.c **** 
 414:.\Generated_Source\PSoC4/Comp_0.c **** 
 415:.\Generated_Source\PSoC4/Comp_0.c **** /*******************************************************************************
ARM GAS  C:\Users\kbuchi\AppData\Local\Temp\ccfpF8mx.s 			page 17


 416:.\Generated_Source\PSoC4/Comp_0.c **** * Function Name: Comp_0_ZeroCal
 417:.\Generated_Source\PSoC4/Comp_0.c **** ********************************************************************************
 418:.\Generated_Source\PSoC4/Comp_0.c **** *
 419:.\Generated_Source\PSoC4/Comp_0.c **** * Summary:
 420:.\Generated_Source\PSoC4/Comp_0.c **** *  Performs custom calibration of the input offset to minimize error for a
 421:.\Generated_Source\PSoC4/Comp_0.c **** *  specific set of conditions: comparator reference voltage, supply voltage,
 422:.\Generated_Source\PSoC4/Comp_0.c **** *  and operating temperature. A reference voltage in the range at which the
 423:.\Generated_Source\PSoC4/Comp_0.c **** *  comparator will be used must be applied to one of the inputs. The two inputs
 424:.\Generated_Source\PSoC4/Comp_0.c **** *  will be shorted internally to perform the offset calibration.
 425:.\Generated_Source\PSoC4/Comp_0.c **** *
 426:.\Generated_Source\PSoC4/Comp_0.c **** * Parameters:
 427:.\Generated_Source\PSoC4/Comp_0.c **** *  None
 428:.\Generated_Source\PSoC4/Comp_0.c **** *
 429:.\Generated_Source\PSoC4/Comp_0.c **** * Return:
 430:.\Generated_Source\PSoC4/Comp_0.c **** *  The value from the comparator trim register after the offset calibration is
 431:.\Generated_Source\PSoC4/Comp_0.c **** *  complete. This value has the same format as the input parameter for the
 432:.\Generated_Source\PSoC4/Comp_0.c **** *  Comp_0_LoadTrim() API routine.
 433:.\Generated_Source\PSoC4/Comp_0.c **** *
 434:.\Generated_Source\PSoC4/Comp_0.c **** *******************************************************************************/
 435:.\Generated_Source\PSoC4/Comp_0.c **** uint32 Comp_0_ZeroCal(void)
 436:.\Generated_Source\PSoC4/Comp_0.c **** {
 492              		.loc 1 436 0
 493              		.cfi_startproc
 494 0000 70B5     		push	{r4, r5, r6, lr}
 495              		.cfi_def_cfa_offset 16
 496              		.cfi_offset 4, -16
 497              		.cfi_offset 5, -12
 498              		.cfi_offset 6, -8
 499              		.cfi_offset 14, -4
 437:.\Generated_Source\PSoC4/Comp_0.c ****     uint32 cmpOut;
 438:.\Generated_Source\PSoC4/Comp_0.c ****     uint32 i;
 439:.\Generated_Source\PSoC4/Comp_0.c **** 
 440:.\Generated_Source\PSoC4/Comp_0.c ****     Comp_0_DFT_REG |= Comp_0_DFT_CAL_EN;
 500              		.loc 1 440 0
 501 0002 254B     		ldr	r3, .L51
 502 0004 1968     		ldr	r1, [r3]
 503 0006 0122     		mov	r2, #1
 504 0008 0A43     		orr	r2, r1
 505 000a 1A60     		str	r2, [r3]
 441:.\Generated_Source\PSoC4/Comp_0.c ****     Comp_0_TRIMA_REG = 0u;
 506              		.loc 1 441 0
 507 000c 0023     		mov	r3, #0
 508 000e 234A     		ldr	r2, .L51+4
 509 0010 1360     		str	r3, [r2]
 442:.\Generated_Source\PSoC4/Comp_0.c ****     Comp_0_TRIMB_REG = 0u;
 510              		.loc 1 442 0
 511 0012 234A     		ldr	r2, .L51+8
 512 0014 1360     		str	r3, [r2]
 443:.\Generated_Source\PSoC4/Comp_0.c **** 
 444:.\Generated_Source\PSoC4/Comp_0.c ****     CyDelayUs(1u);
 513              		.loc 1 444 0
 514 0016 0120     		mov	r0, #1
 515 0018 FFF7FEFF 		bl	CyDelayUs
 516              	.LVL32:
 445:.\Generated_Source\PSoC4/Comp_0.c **** 
 446:.\Generated_Source\PSoC4/Comp_0.c ****     cmpOut = Comp_0_GetCompare();
 517              		.loc 1 446 0
ARM GAS  C:\Users\kbuchi\AppData\Local\Temp\ccfpF8mx.s 			page 18


 518 001c FFF7FEFF 		bl	Comp_0_GetCompare
 519              	.LVL33:
 520 0020 061E     		sub	r6, r0, #0
 521              	.LVL34:
 447:.\Generated_Source\PSoC4/Comp_0.c **** 
 448:.\Generated_Source\PSoC4/Comp_0.c ****     if(0u != cmpOut)
 522              		.loc 1 448 0
 523 0022 02D0     		beq	.L43
 449:.\Generated_Source\PSoC4/Comp_0.c ****     {
 450:.\Generated_Source\PSoC4/Comp_0.c ****         Comp_0_TRIMA_REG = ((uint32) 0x01u << Comp_0_TRIMA_SIGNBIT);
 524              		.loc 1 450 0
 525 0024 1022     		mov	r2, #16
 526 0026 1D4B     		ldr	r3, .L51+4
 527 0028 1A60     		str	r2, [r3]
 528              	.L43:
 436:.\Generated_Source\PSoC4/Comp_0.c **** {
 529              		.loc 1 436 0 discriminator 1
 530 002a 1024     		mov	r4, #16
 451:.\Generated_Source\PSoC4/Comp_0.c ****     }
 452:.\Generated_Source\PSoC4/Comp_0.c **** 
 453:.\Generated_Source\PSoC4/Comp_0.c ****     for(i = (Comp_0_TRIMA_MAX_VALUE +1u ); i != 0u; i--)
 454:.\Generated_Source\PSoC4/Comp_0.c ****     {
 455:.\Generated_Source\PSoC4/Comp_0.c ****         Comp_0_TRIMA_REG++;
 531              		.loc 1 455 0 discriminator 1
 532 002c 1B4D     		ldr	r5, .L51+4
 533 002e 0AE0     		b	.L44
 534              	.LVL35:
 535              	.L46:
 536              		.loc 1 455 0 is_stmt 0
 537 0030 2B68     		ldr	r3, [r5]
 538 0032 0133     		add	r3, r3, #1
 539 0034 2B60     		str	r3, [r5]
 456:.\Generated_Source\PSoC4/Comp_0.c ****         CyDelayUs(1u);
 540              		.loc 1 456 0 is_stmt 1
 541 0036 0120     		mov	r0, #1
 542 0038 FFF7FEFF 		bl	CyDelayUs
 543              	.LVL36:
 457:.\Generated_Source\PSoC4/Comp_0.c ****         if(cmpOut != Comp_0_GetCompare())
 544              		.loc 1 457 0
 545 003c FFF7FEFF 		bl	Comp_0_GetCompare
 546              	.LVL37:
 547 0040 B042     		cmp	r0, r6
 548 0042 02D1     		bne	.L45
 453:.\Generated_Source\PSoC4/Comp_0.c ****     for(i = (Comp_0_TRIMA_MAX_VALUE +1u ); i != 0u; i--)
 549              		.loc 1 453 0
 550 0044 013C     		sub	r4, r4, #1
 551              	.LVL38:
 552              	.L44:
 453:.\Generated_Source\PSoC4/Comp_0.c ****     for(i = (Comp_0_TRIMA_MAX_VALUE +1u ); i != 0u; i--)
 553              		.loc 1 453 0 is_stmt 0 discriminator 1
 554 0046 002C     		cmp	r4, #0
 555 0048 F2D1     		bne	.L46
 556              	.L45:
 458:.\Generated_Source\PSoC4/Comp_0.c ****         {
 459:.\Generated_Source\PSoC4/Comp_0.c ****             break;
 460:.\Generated_Source\PSoC4/Comp_0.c ****         }
 461:.\Generated_Source\PSoC4/Comp_0.c ****     }
ARM GAS  C:\Users\kbuchi\AppData\Local\Temp\ccfpF8mx.s 			page 19


 462:.\Generated_Source\PSoC4/Comp_0.c **** 
 463:.\Generated_Source\PSoC4/Comp_0.c ****     if(((uint32)(Comp_0_CONFIG_REG >> Comp_0_CONFIG_REG_SHIFT) &
 557              		.loc 1 463 0 is_stmt 1
 558 004a 164B     		ldr	r3, .L51+12
 559 004c 1B68     		ldr	r3, [r3]
 560 004e 9A07     		lsl	r2, r3, #30
 561 0050 16D1     		bne	.L47
 464:.\Generated_Source\PSoC4/Comp_0.c ****         Comp_0_SPEED_PARAM_MASK) == Comp_0_MED_SPEED)
 465:.\Generated_Source\PSoC4/Comp_0.c ****     {
 466:.\Generated_Source\PSoC4/Comp_0.c ****         cmpOut = Comp_0_GetCompare();
 562              		.loc 1 466 0
 563 0052 FFF7FEFF 		bl	Comp_0_GetCompare
 564              	.LVL39:
 565 0056 061E     		sub	r6, r0, #0
 566              	.LVL40:
 467:.\Generated_Source\PSoC4/Comp_0.c **** 
 468:.\Generated_Source\PSoC4/Comp_0.c ****         if(0u == cmpOut)
 567              		.loc 1 468 0
 568 0058 02D1     		bne	.L48
 469:.\Generated_Source\PSoC4/Comp_0.c ****         {
 470:.\Generated_Source\PSoC4/Comp_0.c ****             Comp_0_TRIMB_REG = ((uint32)1u << Comp_0_TRIMB_SIGNBIT);
 569              		.loc 1 470 0
 570 005a 1022     		mov	r2, #16
 571 005c 104B     		ldr	r3, .L51+8
 572 005e 1A60     		str	r2, [r3]
 573              	.L48:
 436:.\Generated_Source\PSoC4/Comp_0.c **** {
 574              		.loc 1 436 0 discriminator 1
 575 0060 1024     		mov	r4, #16
 576              	.LVL41:
 471:.\Generated_Source\PSoC4/Comp_0.c ****         }
 472:.\Generated_Source\PSoC4/Comp_0.c **** 
 473:.\Generated_Source\PSoC4/Comp_0.c ****         for(i = (Comp_0_TRIMB_MAX_VALUE +1u ); i != 0u; i--)
 474:.\Generated_Source\PSoC4/Comp_0.c ****         {
 475:.\Generated_Source\PSoC4/Comp_0.c ****             Comp_0_TRIMB_REG++;
 577              		.loc 1 475 0 discriminator 1
 578 0062 0F4D     		ldr	r5, .L51+8
 579 0064 0AE0     		b	.L49
 580              	.LVL42:
 581              	.L50:
 582              		.loc 1 475 0 is_stmt 0
 583 0066 2B68     		ldr	r3, [r5]
 584 0068 0133     		add	r3, r3, #1
 585 006a 2B60     		str	r3, [r5]
 476:.\Generated_Source\PSoC4/Comp_0.c ****             CyDelayUs(1u);
 586              		.loc 1 476 0 is_stmt 1
 587 006c 0120     		mov	r0, #1
 588 006e FFF7FEFF 		bl	CyDelayUs
 589              	.LVL43:
 477:.\Generated_Source\PSoC4/Comp_0.c ****             if(cmpOut != Comp_0_GetCompare())
 590              		.loc 1 477 0
 591 0072 FFF7FEFF 		bl	Comp_0_GetCompare
 592              	.LVL44:
 593 0076 B042     		cmp	r0, r6
 594 0078 02D1     		bne	.L47
 473:.\Generated_Source\PSoC4/Comp_0.c ****         for(i = (Comp_0_TRIMB_MAX_VALUE +1u ); i != 0u; i--)
 595              		.loc 1 473 0
ARM GAS  C:\Users\kbuchi\AppData\Local\Temp\ccfpF8mx.s 			page 20


 596 007a 013C     		sub	r4, r4, #1
 597              	.LVL45:
 598              	.L49:
 473:.\Generated_Source\PSoC4/Comp_0.c ****         for(i = (Comp_0_TRIMB_MAX_VALUE +1u ); i != 0u; i--)
 599              		.loc 1 473 0 is_stmt 0 discriminator 1
 600 007c 002C     		cmp	r4, #0
 601 007e F2D1     		bne	.L50
 602              	.L47:
 478:.\Generated_Source\PSoC4/Comp_0.c ****             {
 479:.\Generated_Source\PSoC4/Comp_0.c ****                 break;
 480:.\Generated_Source\PSoC4/Comp_0.c ****             }
 481:.\Generated_Source\PSoC4/Comp_0.c ****         }
 482:.\Generated_Source\PSoC4/Comp_0.c ****     }
 483:.\Generated_Source\PSoC4/Comp_0.c **** 
 484:.\Generated_Source\PSoC4/Comp_0.c ****     Comp_0_DFT_REG &= ((uint32)~Comp_0_DFT_CAL_EN);
 603              		.loc 1 484 0 is_stmt 1
 604 0080 054B     		ldr	r3, .L51
 605 0082 1A68     		ldr	r2, [r3]
 606 0084 0121     		mov	r1, #1
 607 0086 8A43     		bic	r2, r1
 608 0088 1A60     		str	r2, [r3]
 485:.\Generated_Source\PSoC4/Comp_0.c **** 
 486:.\Generated_Source\PSoC4/Comp_0.c ****     return (Comp_0_TRIMA_REG | ((uint32)Comp_0_TRIMB_REG << Comp_0_TRIMB_SHIFT));
 609              		.loc 1 486 0
 610 008a 044B     		ldr	r3, .L51+4
 611 008c 1B68     		ldr	r3, [r3]
 612 008e 044A     		ldr	r2, .L51+8
 613 0090 1068     		ldr	r0, [r2]
 614 0092 0002     		lsl	r0, r0, #8
 615 0094 1843     		orr	r0, r3
 487:.\Generated_Source\PSoC4/Comp_0.c **** }
 616              		.loc 1 487 0
 617              		@ sp needed
 618              	.LVL46:
 619              	.LVL47:
 620 0096 70BD     		pop	{r4, r5, r6, pc}
 621              	.L52:
 622              		.align	2
 623              	.L51:
 624 0098 08000A40 		.word	1074397192
 625 009c 00FF0A40 		.word	1074462464
 626 00a0 04FF0A40 		.word	1074462468
 627 00a4 04000A40 		.word	1074397188
 628              		.cfi_endproc
 629              	.LFE12:
 630              		.size	Comp_0_ZeroCal, .-Comp_0_ZeroCal
 631              		.section	.text.Comp_0_LoadTrim,"ax",%progbits
 632              		.align	2
 633              		.global	Comp_0_LoadTrim
 634              		.code	16
 635              		.thumb_func
 636              		.type	Comp_0_LoadTrim, %function
 637              	Comp_0_LoadTrim:
 638              	.LFB13:
 488:.\Generated_Source\PSoC4/Comp_0.c **** 
 489:.\Generated_Source\PSoC4/Comp_0.c **** 
 490:.\Generated_Source\PSoC4/Comp_0.c **** /*******************************************************************************
ARM GAS  C:\Users\kbuchi\AppData\Local\Temp\ccfpF8mx.s 			page 21


 491:.\Generated_Source\PSoC4/Comp_0.c **** * Function Name: Comp_0_LoadTrim
 492:.\Generated_Source\PSoC4/Comp_0.c **** ********************************************************************************
 493:.\Generated_Source\PSoC4/Comp_0.c **** *
 494:.\Generated_Source\PSoC4/Comp_0.c **** * Summary:
 495:.\Generated_Source\PSoC4/Comp_0.c **** *  This function writes a value into the comparator offset trim register.
 496:.\Generated_Source\PSoC4/Comp_0.c **** *
 497:.\Generated_Source\PSoC4/Comp_0.c **** * Parameters:
 498:.\Generated_Source\PSoC4/Comp_0.c **** *  trimVal: Value to be stored in the comparator offset trim register. This
 499:.\Generated_Source\PSoC4/Comp_0.c **** *  value has the same format as the parameter returned by the
 500:.\Generated_Source\PSoC4/Comp_0.c **** *  Comp_0_ZeroCal() API routine.
 501:.\Generated_Source\PSoC4/Comp_0.c **** *
 502:.\Generated_Source\PSoC4/Comp_0.c **** * Return:
 503:.\Generated_Source\PSoC4/Comp_0.c **** *  None
 504:.\Generated_Source\PSoC4/Comp_0.c **** *
 505:.\Generated_Source\PSoC4/Comp_0.c **** *******************************************************************************/
 506:.\Generated_Source\PSoC4/Comp_0.c **** void Comp_0_LoadTrim(uint32 trimVal)
 507:.\Generated_Source\PSoC4/Comp_0.c **** {
 639              		.loc 1 507 0
 640              		.cfi_startproc
 641              	.LVL48:
 508:.\Generated_Source\PSoC4/Comp_0.c ****     Comp_0_TRIMA_REG = (trimVal & Comp_0_TRIMA_MASK);
 642              		.loc 1 508 0
 643 0000 1F23     		mov	r3, #31
 644 0002 191C     		mov	r1, r3
 645 0004 0140     		and	r1, r0
 646 0006 034A     		ldr	r2, .L54
 647 0008 1160     		str	r1, [r2]
 509:.\Generated_Source\PSoC4/Comp_0.c ****     Comp_0_TRIMB_REG = ((trimVal >> Comp_0_TRIMB_SHIFT) & Comp_0_TRIMB_MASK);
 648              		.loc 1 509 0
 649 000a 000A     		lsr	r0, r0, #8
 650              	.LVL49:
 651 000c 0340     		and	r3, r0
 652 000e 024A     		ldr	r2, .L54+4
 653 0010 1360     		str	r3, [r2]
 510:.\Generated_Source\PSoC4/Comp_0.c **** }
 654              		.loc 1 510 0
 655              		@ sp needed
 656 0012 7047     		bx	lr
 657              	.L55:
 658              		.align	2
 659              	.L54:
 660 0014 00FF0A40 		.word	1074462464
 661 0018 04FF0A40 		.word	1074462468
 662              		.cfi_endproc
 663              	.LFE13:
 664              		.size	Comp_0_LoadTrim, .-Comp_0_LoadTrim
 665              		.global	Comp_0_initVar
 666              		.bss
 667              		.align	2
 668              		.set	.LANCHOR0,. + 0
 669              		.type	Comp_0_internalIntr, %object
 670              		.size	Comp_0_internalIntr, 4
 671              	Comp_0_internalIntr:
 672 0000 00000000 		.space	4
 673              		.type	Comp_0_initVar, %object
 674              		.size	Comp_0_initVar, 1
 675              	Comp_0_initVar:
ARM GAS  C:\Users\kbuchi\AppData\Local\Temp\ccfpF8mx.s 			page 22


 676 0004 00       		.space	1
 677 0005 000000   		.text
 678              	.Letext0:
 679              		.file 2 ".\\Generated_Source\\PSoC4\\cytypes.h"
 680              		.file 3 ".\\Generated_Source\\PSoC4\\CyLib.h"