ARM GAS  C:\Users\kbuchi\AppData\Local\Temp\ccLgzImJ.s 			page 1


   1              		.cpu cortex-m0
   2              		.fpu softvfp
   3              		.eabi_attribute 20, 1
   4              		.eabi_attribute 21, 1
   5              		.eabi_attribute 23, 3
   6              		.eabi_attribute 24, 1
   7              		.eabi_attribute 25, 1
   8              		.eabi_attribute 26, 1
   9              		.eabi_attribute 30, 1
  10              		.eabi_attribute 34, 0
  11              		.eabi_attribute 18, 4
  12              		.code	16
  13              		.file	"Comp_1.c"
  14              		.text
  15              	.Ltext0:
  16              		.cfi_sections	.debug_frame
  17              		.section	.text.Comp_1_Init,"ax",%progbits
  18              		.align	2
  19              		.global	Comp_1_Init
  20              		.code	16
  21              		.thumb_func
  22              		.type	Comp_1_Init, %function
  23              	Comp_1_Init:
  24              	.LFB1:
  25              		.file 1 ".\\Generated_Source\\PSoC4\\Comp_1.c"
   1:.\Generated_Source\PSoC4/Comp_1.c **** /*******************************************************************************
   2:.\Generated_Source\PSoC4/Comp_1.c **** * File Name: Comp_1.c
   3:.\Generated_Source\PSoC4/Comp_1.c **** * Version 2.0
   4:.\Generated_Source\PSoC4/Comp_1.c **** *
   5:.\Generated_Source\PSoC4/Comp_1.c **** * Description:
   6:.\Generated_Source\PSoC4/Comp_1.c **** *  This file provides the source code to the API for the Low Power Comparator
   7:.\Generated_Source\PSoC4/Comp_1.c **** *  component.
   8:.\Generated_Source\PSoC4/Comp_1.c **** *
   9:.\Generated_Source\PSoC4/Comp_1.c **** * Note:
  10:.\Generated_Source\PSoC4/Comp_1.c **** *  None
  11:.\Generated_Source\PSoC4/Comp_1.c **** *
  12:.\Generated_Source\PSoC4/Comp_1.c **** ********************************************************************************
  13:.\Generated_Source\PSoC4/Comp_1.c **** * Copyright 2013-2014, Cypress Semiconductor Corporation.  All rights reserved.
  14:.\Generated_Source\PSoC4/Comp_1.c **** * You may use this file only in accordance with the license, terms, conditions,
  15:.\Generated_Source\PSoC4/Comp_1.c **** * disclaimers, and limitations in the end user license agreement accompanying
  16:.\Generated_Source\PSoC4/Comp_1.c **** * the software package with which this file was provided.
  17:.\Generated_Source\PSoC4/Comp_1.c **** *******************************************************************************/
  18:.\Generated_Source\PSoC4/Comp_1.c **** 
  19:.\Generated_Source\PSoC4/Comp_1.c **** #include "Comp_1.h"
  20:.\Generated_Source\PSoC4/Comp_1.c **** #include "CyLib.h"
  21:.\Generated_Source\PSoC4/Comp_1.c **** #include "cyPm.h"
  22:.\Generated_Source\PSoC4/Comp_1.c **** 
  23:.\Generated_Source\PSoC4/Comp_1.c **** uint8 Comp_1_initVar = 0u;
  24:.\Generated_Source\PSoC4/Comp_1.c **** static uint32 Comp_1_internalIntr = 0u;
  25:.\Generated_Source\PSoC4/Comp_1.c **** #if(Comp_1_CY_LPCOMP_V2)
  26:.\Generated_Source\PSoC4/Comp_1.c ****     /* This variable saves INTR_MASK register since it get reset after wakeup 
  27:.\Generated_Source\PSoC4/Comp_1.c ****     * from Hibernate. Attribute CY_NOINIT puts SRAM variable in memory section 
  28:.\Generated_Source\PSoC4/Comp_1.c ****     * which is retained in low power modes 
  29:.\Generated_Source\PSoC4/Comp_1.c ****     */
  30:.\Generated_Source\PSoC4/Comp_1.c ****     CY_NOINIT static uint32 Comp_1_intrMaskRegState;
  31:.\Generated_Source\PSoC4/Comp_1.c **** #endif /* (Comp_1_CY_LPCOMP_V2) */
  32:.\Generated_Source\PSoC4/Comp_1.c **** 
ARM GAS  C:\Users\kbuchi\AppData\Local\Temp\ccLgzImJ.s 			page 2


  33:.\Generated_Source\PSoC4/Comp_1.c **** 
  34:.\Generated_Source\PSoC4/Comp_1.c **** /*******************************************************************************
  35:.\Generated_Source\PSoC4/Comp_1.c **** * Function Name: Comp_1_Start
  36:.\Generated_Source\PSoC4/Comp_1.c **** ********************************************************************************
  37:.\Generated_Source\PSoC4/Comp_1.c **** *
  38:.\Generated_Source\PSoC4/Comp_1.c **** * Summary:
  39:.\Generated_Source\PSoC4/Comp_1.c **** *  Performs all of the required initialization for the component and enables
  40:.\Generated_Source\PSoC4/Comp_1.c **** *  power to the block. The first time the routine is executed, the component is
  41:.\Generated_Source\PSoC4/Comp_1.c **** *  initialized to the configuration from the customizer. When called to restart
  42:.\Generated_Source\PSoC4/Comp_1.c **** *  the comparator following a Comp_1_Stop() call, the current
  43:.\Generated_Source\PSoC4/Comp_1.c **** *  component parameter settings are retained.
  44:.\Generated_Source\PSoC4/Comp_1.c **** *
  45:.\Generated_Source\PSoC4/Comp_1.c **** * Parameters:
  46:.\Generated_Source\PSoC4/Comp_1.c **** *   None
  47:.\Generated_Source\PSoC4/Comp_1.c **** *
  48:.\Generated_Source\PSoC4/Comp_1.c **** * Return:
  49:.\Generated_Source\PSoC4/Comp_1.c **** *  None
  50:.\Generated_Source\PSoC4/Comp_1.c **** *
  51:.\Generated_Source\PSoC4/Comp_1.c **** * Global variables:
  52:.\Generated_Source\PSoC4/Comp_1.c **** *  Comp_1_initVar: Is modified when this function is called for the
  53:.\Generated_Source\PSoC4/Comp_1.c **** *   first time. Is used to ensure that initialization happens only once.
  54:.\Generated_Source\PSoC4/Comp_1.c **** *
  55:.\Generated_Source\PSoC4/Comp_1.c **** *******************************************************************************/
  56:.\Generated_Source\PSoC4/Comp_1.c **** void Comp_1_Start(void)
  57:.\Generated_Source\PSoC4/Comp_1.c **** {
  58:.\Generated_Source\PSoC4/Comp_1.c ****     if(0u == Comp_1_initVar)
  59:.\Generated_Source\PSoC4/Comp_1.c ****     {
  60:.\Generated_Source\PSoC4/Comp_1.c ****         Comp_1_Init();
  61:.\Generated_Source\PSoC4/Comp_1.c ****         Comp_1_initVar = 1u;
  62:.\Generated_Source\PSoC4/Comp_1.c ****     }
  63:.\Generated_Source\PSoC4/Comp_1.c ****     Comp_1_Enable();
  64:.\Generated_Source\PSoC4/Comp_1.c **** }
  65:.\Generated_Source\PSoC4/Comp_1.c **** 
  66:.\Generated_Source\PSoC4/Comp_1.c **** 
  67:.\Generated_Source\PSoC4/Comp_1.c **** /*******************************************************************************
  68:.\Generated_Source\PSoC4/Comp_1.c **** * Function Name: Comp_1_Init
  69:.\Generated_Source\PSoC4/Comp_1.c **** ********************************************************************************
  70:.\Generated_Source\PSoC4/Comp_1.c **** *
  71:.\Generated_Source\PSoC4/Comp_1.c **** * Summary:
  72:.\Generated_Source\PSoC4/Comp_1.c **** *  Initializes or restores the component according to the customizer settings.
  73:.\Generated_Source\PSoC4/Comp_1.c **** *  It is not necessary to call Comp_1_Init() because the
  74:.\Generated_Source\PSoC4/Comp_1.c **** *  Comp_1_Start() API calls this function and is the preferred method
  75:.\Generated_Source\PSoC4/Comp_1.c **** *  to begin component operation.
  76:.\Generated_Source\PSoC4/Comp_1.c **** *
  77:.\Generated_Source\PSoC4/Comp_1.c **** * Parameters:
  78:.\Generated_Source\PSoC4/Comp_1.c **** *  None
  79:.\Generated_Source\PSoC4/Comp_1.c **** *
  80:.\Generated_Source\PSoC4/Comp_1.c **** * Return:
  81:.\Generated_Source\PSoC4/Comp_1.c **** *  None
  82:.\Generated_Source\PSoC4/Comp_1.c **** *
  83:.\Generated_Source\PSoC4/Comp_1.c **** *******************************************************************************/
  84:.\Generated_Source\PSoC4/Comp_1.c **** void Comp_1_Init(void)
  85:.\Generated_Source\PSoC4/Comp_1.c **** {
  26              		.loc 1 85 0
  27              		.cfi_startproc
  28 0000 08B5     		push	{r3, lr}
  29              		.cfi_def_cfa_offset 8
ARM GAS  C:\Users\kbuchi\AppData\Local\Temp\ccLgzImJ.s 			page 3


  30              		.cfi_offset 3, -8
  31              		.cfi_offset 14, -4
  86:.\Generated_Source\PSoC4/Comp_1.c ****     uint8 enableInterrupts;
  87:.\Generated_Source\PSoC4/Comp_1.c **** 
  88:.\Generated_Source\PSoC4/Comp_1.c ****     enableInterrupts = CyEnterCriticalSection();
  32              		.loc 1 88 0
  33 0002 FFF7FEFF 		bl	CyEnterCriticalSection
  34              	.LVL0:
  89:.\Generated_Source\PSoC4/Comp_1.c ****     Comp_1_CONFIG_REG |= Comp_1_CONFIG_REG_DEFAULT;
  35              		.loc 1 89 0
  36 0006 044B     		ldr	r3, .L2
  37 0008 1968     		ldr	r1, [r3]
  38 000a D422     		mov	r2, #212
  39 000c 9201     		lsl	r2, r2, #6
  40 000e 0A43     		orr	r2, r1
  41 0010 1A60     		str	r2, [r3]
  90:.\Generated_Source\PSoC4/Comp_1.c ****     
  91:.\Generated_Source\PSoC4/Comp_1.c ****     #if (Comp_1_CY_LPCOMP_V2)
  92:.\Generated_Source\PSoC4/Comp_1.c ****         if (CySysPmGetResetReason() == CY_PM_RESET_REASON_WAKEUP_HIB)
  93:.\Generated_Source\PSoC4/Comp_1.c ****         {
  94:.\Generated_Source\PSoC4/Comp_1.c ****             /* Restore the INTR_MASK register state since it get reset after 
  95:.\Generated_Source\PSoC4/Comp_1.c ****             * wakeup from Hibernate.  
  96:.\Generated_Source\PSoC4/Comp_1.c ****             */
  97:.\Generated_Source\PSoC4/Comp_1.c ****             Comp_1_INTR_MASK_REG |= Comp_1_intrMaskRegState;  
  98:.\Generated_Source\PSoC4/Comp_1.c ****         }
  99:.\Generated_Source\PSoC4/Comp_1.c ****         else
 100:.\Generated_Source\PSoC4/Comp_1.c ****         {
 101:.\Generated_Source\PSoC4/Comp_1.c ****             Comp_1_INTR_MASK_REG |= Comp_1_INTR_MASK_REG_DEFAULT;    
 102:.\Generated_Source\PSoC4/Comp_1.c ****             Comp_1_intrMaskRegState = Comp_1_INTR_MASK_REG;
 103:.\Generated_Source\PSoC4/Comp_1.c ****         }
 104:.\Generated_Source\PSoC4/Comp_1.c ****     #endif /* (Comp_1_CY_LPCOMP_V2) */
 105:.\Generated_Source\PSoC4/Comp_1.c ****     CyExitCriticalSection(enableInterrupts);
  42              		.loc 1 105 0
  43 0012 FFF7FEFF 		bl	CyExitCriticalSection
  44              	.LVL1:
 106:.\Generated_Source\PSoC4/Comp_1.c **** }
  45              		.loc 1 106 0
  46              		@ sp needed
  47 0016 08BD     		pop	{r3, pc}
  48              	.L3:
  49              		.align	2
  50              	.L2:
  51 0018 04000A40 		.word	1074397188
  52              		.cfi_endproc
  53              	.LFE1:
  54              		.size	Comp_1_Init, .-Comp_1_Init
  55              		.section	.text.Comp_1_Enable,"ax",%progbits
  56              		.align	2
  57              		.global	Comp_1_Enable
  58              		.code	16
  59              		.thumb_func
  60              		.type	Comp_1_Enable, %function
  61              	Comp_1_Enable:
  62              	.LFB2:
 107:.\Generated_Source\PSoC4/Comp_1.c **** 
 108:.\Generated_Source\PSoC4/Comp_1.c **** 
 109:.\Generated_Source\PSoC4/Comp_1.c **** /*******************************************************************************
ARM GAS  C:\Users\kbuchi\AppData\Local\Temp\ccLgzImJ.s 			page 4


 110:.\Generated_Source\PSoC4/Comp_1.c **** * Function Name: Comp_1_Enable
 111:.\Generated_Source\PSoC4/Comp_1.c **** ********************************************************************************
 112:.\Generated_Source\PSoC4/Comp_1.c **** *
 113:.\Generated_Source\PSoC4/Comp_1.c **** * Summary:
 114:.\Generated_Source\PSoC4/Comp_1.c **** *  Activates the hardware and begins component operation. It is not necessary
 115:.\Generated_Source\PSoC4/Comp_1.c **** *  to call Comp_1_Enable() because the Comp_1_Start() API
 116:.\Generated_Source\PSoC4/Comp_1.c **** *  calls this function, which is the preferred method to begin component
 117:.\Generated_Source\PSoC4/Comp_1.c **** *  operation.
 118:.\Generated_Source\PSoC4/Comp_1.c **** *
 119:.\Generated_Source\PSoC4/Comp_1.c **** * Parameters:
 120:.\Generated_Source\PSoC4/Comp_1.c **** *  None
 121:.\Generated_Source\PSoC4/Comp_1.c **** *
 122:.\Generated_Source\PSoC4/Comp_1.c **** * Return:
 123:.\Generated_Source\PSoC4/Comp_1.c **** *  None
 124:.\Generated_Source\PSoC4/Comp_1.c **** *
 125:.\Generated_Source\PSoC4/Comp_1.c **** *******************************************************************************/
 126:.\Generated_Source\PSoC4/Comp_1.c **** void Comp_1_Enable(void)
 127:.\Generated_Source\PSoC4/Comp_1.c **** {
  63              		.loc 1 127 0
  64              		.cfi_startproc
  65 0000 08B5     		push	{r3, lr}
  66              		.cfi_def_cfa_offset 8
  67              		.cfi_offset 3, -8
  68              		.cfi_offset 14, -4
 128:.\Generated_Source\PSoC4/Comp_1.c ****     uint8 enableInterrupts;
 129:.\Generated_Source\PSoC4/Comp_1.c ****     
 130:.\Generated_Source\PSoC4/Comp_1.c ****     enableInterrupts = CyEnterCriticalSection();
  69              		.loc 1 130 0
  70 0002 FFF7FEFF 		bl	CyEnterCriticalSection
  71              	.LVL2:
 131:.\Generated_Source\PSoC4/Comp_1.c ****     Comp_1_CONFIG_REG |= Comp_1_CONFIG_EN;
  72              		.loc 1 131 0
  73 0006 074B     		ldr	r3, .L5
  74 0008 1968     		ldr	r1, [r3]
  75 000a 8022     		mov	r2, #128
  76 000c 1202     		lsl	r2, r2, #8
  77 000e 0A43     		orr	r2, r1
  78 0010 1A60     		str	r2, [r3]
 132:.\Generated_Source\PSoC4/Comp_1.c ****     
 133:.\Generated_Source\PSoC4/Comp_1.c ****     /*******************************************************
 134:.\Generated_Source\PSoC4/Comp_1.c ****     * When the Enable() API is called the CONFIG_EN bit is set. 
 135:.\Generated_Source\PSoC4/Comp_1.c ****     * This can cause fake interrupt because of the output delay 
 136:.\Generated_Source\PSoC4/Comp_1.c ****     * of the analog. This requires setting the CONFIG_INTR bits 
 137:.\Generated_Source\PSoC4/Comp_1.c ****     * after the CONFIG_EN bit is set.
 138:.\Generated_Source\PSoC4/Comp_1.c ****     *******************************************************/
 139:.\Generated_Source\PSoC4/Comp_1.c ****     Comp_1_CONFIG_REG |= Comp_1_internalIntr;
  79              		.loc 1 139 0
  80 0012 1968     		ldr	r1, [r3]
  81 0014 044A     		ldr	r2, .L5+4
  82 0016 1268     		ldr	r2, [r2]
  83 0018 0A43     		orr	r2, r1
  84 001a 1A60     		str	r2, [r3]
 140:.\Generated_Source\PSoC4/Comp_1.c ****     CyExitCriticalSection(enableInterrupts);
  85              		.loc 1 140 0
  86 001c FFF7FEFF 		bl	CyExitCriticalSection
  87              	.LVL3:
 141:.\Generated_Source\PSoC4/Comp_1.c **** }
ARM GAS  C:\Users\kbuchi\AppData\Local\Temp\ccLgzImJ.s 			page 5


  88              		.loc 1 141 0
  89              		@ sp needed
  90 0020 08BD     		pop	{r3, pc}
  91              	.L6:
  92 0022 C046     		.align	2
  93              	.L5:
  94 0024 04000A40 		.word	1074397188
  95 0028 00000000 		.word	.LANCHOR0
  96              		.cfi_endproc
  97              	.LFE2:
  98              		.size	Comp_1_Enable, .-Comp_1_Enable
  99              		.section	.text.Comp_1_Start,"ax",%progbits
 100              		.align	2
 101              		.global	Comp_1_Start
 102              		.code	16
 103              		.thumb_func
 104              		.type	Comp_1_Start, %function
 105              	Comp_1_Start:
 106              	.LFB0:
  57:.\Generated_Source\PSoC4/Comp_1.c **** {
 107              		.loc 1 57 0
 108              		.cfi_startproc
 109 0000 08B5     		push	{r3, lr}
 110              		.cfi_def_cfa_offset 8
 111              		.cfi_offset 3, -8
 112              		.cfi_offset 14, -4
  58:.\Generated_Source\PSoC4/Comp_1.c ****     if(0u == Comp_1_initVar)
 113              		.loc 1 58 0
 114 0002 064B     		ldr	r3, .L9
 115 0004 1B79     		ldrb	r3, [r3, #4]
 116 0006 002B     		cmp	r3, #0
 117 0008 04D1     		bne	.L8
  60:.\Generated_Source\PSoC4/Comp_1.c ****         Comp_1_Init();
 118              		.loc 1 60 0
 119 000a FFF7FEFF 		bl	Comp_1_Init
 120              	.LVL4:
  61:.\Generated_Source\PSoC4/Comp_1.c ****         Comp_1_initVar = 1u;
 121              		.loc 1 61 0
 122 000e 0122     		mov	r2, #1
 123 0010 024B     		ldr	r3, .L9
 124 0012 1A71     		strb	r2, [r3, #4]
 125              	.L8:
  63:.\Generated_Source\PSoC4/Comp_1.c ****     Comp_1_Enable();
 126              		.loc 1 63 0
 127 0014 FFF7FEFF 		bl	Comp_1_Enable
 128              	.LVL5:
  64:.\Generated_Source\PSoC4/Comp_1.c **** }
 129              		.loc 1 64 0
 130              		@ sp needed
 131 0018 08BD     		pop	{r3, pc}
 132              	.L10:
 133 001a C046     		.align	2
 134              	.L9:
 135 001c 00000000 		.word	.LANCHOR0
 136              		.cfi_endproc
 137              	.LFE0:
 138              		.size	Comp_1_Start, .-Comp_1_Start
ARM GAS  C:\Users\kbuchi\AppData\Local\Temp\ccLgzImJ.s 			page 6


 139              		.section	.text.Comp_1_Stop,"ax",%progbits
 140              		.align	2
 141              		.global	Comp_1_Stop
 142              		.code	16
 143              		.thumb_func
 144              		.type	Comp_1_Stop, %function
 145              	Comp_1_Stop:
 146              	.LFB3:
 142:.\Generated_Source\PSoC4/Comp_1.c **** 
 143:.\Generated_Source\PSoC4/Comp_1.c **** 
 144:.\Generated_Source\PSoC4/Comp_1.c **** /*******************************************************************************
 145:.\Generated_Source\PSoC4/Comp_1.c **** * Function Name: Comp_1_Stop
 146:.\Generated_Source\PSoC4/Comp_1.c **** ********************************************************************************
 147:.\Generated_Source\PSoC4/Comp_1.c **** *
 148:.\Generated_Source\PSoC4/Comp_1.c **** * Summary:
 149:.\Generated_Source\PSoC4/Comp_1.c **** *  Turns off the LP Comparator.
 150:.\Generated_Source\PSoC4/Comp_1.c **** *
 151:.\Generated_Source\PSoC4/Comp_1.c **** * Parameters:
 152:.\Generated_Source\PSoC4/Comp_1.c **** *  None
 153:.\Generated_Source\PSoC4/Comp_1.c **** *
 154:.\Generated_Source\PSoC4/Comp_1.c **** * Return:
 155:.\Generated_Source\PSoC4/Comp_1.c **** *  None
 156:.\Generated_Source\PSoC4/Comp_1.c **** *
 157:.\Generated_Source\PSoC4/Comp_1.c **** * Side Effects:
 158:.\Generated_Source\PSoC4/Comp_1.c **** *  The function doesn't change component Speed settings.
 159:.\Generated_Source\PSoC4/Comp_1.c **** *
 160:.\Generated_Source\PSoC4/Comp_1.c **** *******************************************************************************/
 161:.\Generated_Source\PSoC4/Comp_1.c **** void Comp_1_Stop(void)
 162:.\Generated_Source\PSoC4/Comp_1.c **** {
 147              		.loc 1 162 0
 148              		.cfi_startproc
 149 0000 08B5     		push	{r3, lr}
 150              		.cfi_def_cfa_offset 8
 151              		.cfi_offset 3, -8
 152              		.cfi_offset 14, -4
 163:.\Generated_Source\PSoC4/Comp_1.c ****     uint8 enableInterrupts;
 164:.\Generated_Source\PSoC4/Comp_1.c ****     
 165:.\Generated_Source\PSoC4/Comp_1.c ****     enableInterrupts = CyEnterCriticalSection();
 153              		.loc 1 165 0
 154 0002 FFF7FEFF 		bl	CyEnterCriticalSection
 155              	.LVL6:
 166:.\Generated_Source\PSoC4/Comp_1.c ****     #if (Comp_1_CY_LPCOMP_V0)
 167:.\Generated_Source\PSoC4/Comp_1.c ****         /*******************************************************
 168:.\Generated_Source\PSoC4/Comp_1.c ****         * When the Stop() API is called the CONFIG_EN bit is 
 169:.\Generated_Source\PSoC4/Comp_1.c ****         * cleared. This causes the output of the comparator to go 
 170:.\Generated_Source\PSoC4/Comp_1.c ****         * low. If the comparator output was high and the Interrupt 
 171:.\Generated_Source\PSoC4/Comp_1.c ****         * Configuration is set for Falling edge disabling the 
 172:.\Generated_Source\PSoC4/Comp_1.c ****         * comparator will cause an fake interrupt. This requires 
 173:.\Generated_Source\PSoC4/Comp_1.c ****         * to clear the CONFIG_INTR bits before the CONFIG_EN bit 
 174:.\Generated_Source\PSoC4/Comp_1.c ****         * is cleared.
 175:.\Generated_Source\PSoC4/Comp_1.c ****         *******************************************************/
 176:.\Generated_Source\PSoC4/Comp_1.c ****         Comp_1_CONFIG_REG &= (uint32)~Comp_1_CONFIG_INTR_MASK;
 156              		.loc 1 176 0
 157 0006 064B     		ldr	r3, .L12
 158 0008 1968     		ldr	r1, [r3]
 159 000a 064A     		ldr	r2, .L12+4
 160 000c 0A40     		and	r2, r1
ARM GAS  C:\Users\kbuchi\AppData\Local\Temp\ccLgzImJ.s 			page 7


 161 000e 1A60     		str	r2, [r3]
 177:.\Generated_Source\PSoC4/Comp_1.c ****     #endif /* (Comp_1_CY_LPCOMP_V0) */
 178:.\Generated_Source\PSoC4/Comp_1.c **** 
 179:.\Generated_Source\PSoC4/Comp_1.c ****     Comp_1_CONFIG_REG &= (uint32)~Comp_1_CONFIG_EN;
 162              		.loc 1 179 0
 163 0010 1968     		ldr	r1, [r3]
 164 0012 054A     		ldr	r2, .L12+8
 165 0014 0A40     		and	r2, r1
 166 0016 1A60     		str	r2, [r3]
 180:.\Generated_Source\PSoC4/Comp_1.c ****     CyExitCriticalSection(enableInterrupts);
 167              		.loc 1 180 0
 168 0018 FFF7FEFF 		bl	CyExitCriticalSection
 169              	.LVL7:
 181:.\Generated_Source\PSoC4/Comp_1.c **** }
 170              		.loc 1 181 0
 171              		@ sp needed
 172 001c 08BD     		pop	{r3, pc}
 173              	.L13:
 174 001e C046     		.align	2
 175              	.L12:
 176 0020 04000A40 		.word	1074397188
 177 0024 FFCFFFFF 		.word	-12289
 178 0028 FF7FFFFF 		.word	-32769
 179              		.cfi_endproc
 180              	.LFE3:
 181              		.size	Comp_1_Stop, .-Comp_1_Stop
 182              		.section	.text.Comp_1_SetSpeed,"ax",%progbits
 183              		.align	2
 184              		.global	Comp_1_SetSpeed
 185              		.code	16
 186              		.thumb_func
 187              		.type	Comp_1_SetSpeed, %function
 188              	Comp_1_SetSpeed:
 189              	.LFB4:
 182:.\Generated_Source\PSoC4/Comp_1.c **** 
 183:.\Generated_Source\PSoC4/Comp_1.c **** 
 184:.\Generated_Source\PSoC4/Comp_1.c **** /*******************************************************************************
 185:.\Generated_Source\PSoC4/Comp_1.c **** * Function Name: Comp_1_SetSpeed
 186:.\Generated_Source\PSoC4/Comp_1.c **** *
 187:.\Generated_Source\PSoC4/Comp_1.c **** * Summary:
 188:.\Generated_Source\PSoC4/Comp_1.c **** *  Sets the drive power and speed to one of three settings.
 189:.\Generated_Source\PSoC4/Comp_1.c **** *
 190:.\Generated_Source\PSoC4/Comp_1.c **** * Parameters:
 191:.\Generated_Source\PSoC4/Comp_1.c **** *  uint32 speed: Sets operation mode of the component:
 192:.\Generated_Source\PSoC4/Comp_1.c **** *   Comp_1_LOW_SPEED  - Slow/ultra low 
 193:.\Generated_Source\PSoC4/Comp_1.c **** *   Comp_1_MED_SPEED  - Medium/low 
 194:.\Generated_Source\PSoC4/Comp_1.c **** *   Comp_1_HIGH_SPEED - Fast/normal 
 195:.\Generated_Source\PSoC4/Comp_1.c **** *
 196:.\Generated_Source\PSoC4/Comp_1.c **** * Return:
 197:.\Generated_Source\PSoC4/Comp_1.c **** *  None
 198:.\Generated_Source\PSoC4/Comp_1.c **** *
 199:.\Generated_Source\PSoC4/Comp_1.c **** *******************************************************************************/
 200:.\Generated_Source\PSoC4/Comp_1.c **** void Comp_1_SetSpeed(uint32 speed)
 201:.\Generated_Source\PSoC4/Comp_1.c **** {
 190              		.loc 1 201 0
 191              		.cfi_startproc
 192              	.LVL8:
ARM GAS  C:\Users\kbuchi\AppData\Local\Temp\ccLgzImJ.s 			page 8


 193 0000 10B5     		push	{r4, lr}
 194              		.cfi_def_cfa_offset 8
 195              		.cfi_offset 4, -8
 196              		.cfi_offset 14, -4
 197 0002 041C     		mov	r4, r0
 202:.\Generated_Source\PSoC4/Comp_1.c ****     uint32 config;
 203:.\Generated_Source\PSoC4/Comp_1.c ****     uint8 enableInterrupts;
 204:.\Generated_Source\PSoC4/Comp_1.c ****     
 205:.\Generated_Source\PSoC4/Comp_1.c ****     enableInterrupts = CyEnterCriticalSection();
 198              		.loc 1 205 0
 199 0004 FFF7FEFF 		bl	CyEnterCriticalSection
 200              	.LVL9:
 206:.\Generated_Source\PSoC4/Comp_1.c ****     config = Comp_1_CONFIG_REG & (uint32)~Comp_1_CONFIG_SPEED_MODE_MASK;
 201              		.loc 1 206 0
 202 0008 064B     		ldr	r3, .L15
 203 000a 1968     		ldr	r1, [r3]
 204 000c 064A     		ldr	r2, .L15+4
 205 000e 0A40     		and	r2, r1
 206              	.LVL10:
 207:.\Generated_Source\PSoC4/Comp_1.c ****     Comp_1_CONFIG_REG = config | Comp_1_GET_CONFIG_SPEED_MODE(speed);
 207              		.loc 1 207 0
 208 0010 2402     		lsl	r4, r4, #8
 209              	.LVL11:
 210 0012 C021     		mov	r1, #192
 211 0014 8900     		lsl	r1, r1, #2
 212 0016 0C40     		and	r4, r1
 213 0018 1443     		orr	r4, r2
 214 001a 1C60     		str	r4, [r3]
 208:.\Generated_Source\PSoC4/Comp_1.c ****     CyExitCriticalSection(enableInterrupts);
 215              		.loc 1 208 0
 216 001c FFF7FEFF 		bl	CyExitCriticalSection
 217              	.LVL12:
 209:.\Generated_Source\PSoC4/Comp_1.c **** }
 218              		.loc 1 209 0
 219              		@ sp needed
 220 0020 10BD     		pop	{r4, pc}
 221              	.L16:
 222 0022 C046     		.align	2
 223              	.L15:
 224 0024 04000A40 		.word	1074397188
 225 0028 FFFCFFFF 		.word	-769
 226              		.cfi_endproc
 227              	.LFE4:
 228              		.size	Comp_1_SetSpeed, .-Comp_1_SetSpeed
 229              		.section	.text.Comp_1_SetInterruptMode,"ax",%progbits
 230              		.align	2
 231              		.global	Comp_1_SetInterruptMode
 232              		.code	16
 233              		.thumb_func
 234              		.type	Comp_1_SetInterruptMode, %function
 235              	Comp_1_SetInterruptMode:
 236              	.LFB5:
 210:.\Generated_Source\PSoC4/Comp_1.c **** 
 211:.\Generated_Source\PSoC4/Comp_1.c **** 
 212:.\Generated_Source\PSoC4/Comp_1.c **** /*******************************************************************************
 213:.\Generated_Source\PSoC4/Comp_1.c **** * Function Name: Comp_1_SetInterruptMode
 214:.\Generated_Source\PSoC4/Comp_1.c **** ********************************************************************************
ARM GAS  C:\Users\kbuchi\AppData\Local\Temp\ccLgzImJ.s 			page 9


 215:.\Generated_Source\PSoC4/Comp_1.c **** *
 216:.\Generated_Source\PSoC4/Comp_1.c **** * Summary:
 217:.\Generated_Source\PSoC4/Comp_1.c **** *  Sets the interrupt edge detect mode. This also controls the value provided
 218:.\Generated_Source\PSoC4/Comp_1.c **** *  on the output.
 219:.\Generated_Source\PSoC4/Comp_1.c **** *
 220:.\Generated_Source\PSoC4/Comp_1.c **** * Parameters:
 221:.\Generated_Source\PSoC4/Comp_1.c **** *  uint32 mode: Enumerated edge detect mode value:
 222:.\Generated_Source\PSoC4/Comp_1.c **** *  Comp_1_INTR_DISABLE - Disable
 223:.\Generated_Source\PSoC4/Comp_1.c **** *  Comp_1_INTR_RISING  - Rising edge detect
 224:.\Generated_Source\PSoC4/Comp_1.c **** *  Comp_1_INTR_FALLING - Falling edge detect
 225:.\Generated_Source\PSoC4/Comp_1.c **** *  Comp_1_INTR_BOTH    - Detect both edges
 226:.\Generated_Source\PSoC4/Comp_1.c **** *
 227:.\Generated_Source\PSoC4/Comp_1.c **** * Return:
 228:.\Generated_Source\PSoC4/Comp_1.c **** *  None
 229:.\Generated_Source\PSoC4/Comp_1.c **** *
 230:.\Generated_Source\PSoC4/Comp_1.c **** *******************************************************************************/
 231:.\Generated_Source\PSoC4/Comp_1.c **** void Comp_1_SetInterruptMode(uint32 mode)
 232:.\Generated_Source\PSoC4/Comp_1.c **** {
 237              		.loc 1 232 0
 238              		.cfi_startproc
 239              	.LVL13:
 240 0000 10B5     		push	{r4, lr}
 241              		.cfi_def_cfa_offset 8
 242              		.cfi_offset 4, -8
 243              		.cfi_offset 14, -4
 233:.\Generated_Source\PSoC4/Comp_1.c ****     uint32 config;
 234:.\Generated_Source\PSoC4/Comp_1.c ****     uint8 enableInterrupts;
 235:.\Generated_Source\PSoC4/Comp_1.c ****     
 236:.\Generated_Source\PSoC4/Comp_1.c ****     Comp_1_internalIntr = Comp_1_GET_CONFIG_INTR(mode);
 244              		.loc 1 236 0
 245 0002 0003     		lsl	r0, r0, #12
 246              	.LVL14:
 247 0004 C023     		mov	r3, #192
 248 0006 9B01     		lsl	r3, r3, #6
 249 0008 1840     		and	r0, r3
 250 000a 074C     		ldr	r4, .L18
 251 000c 2060     		str	r0, [r4]
 237:.\Generated_Source\PSoC4/Comp_1.c **** 
 238:.\Generated_Source\PSoC4/Comp_1.c ****     enableInterrupts = CyEnterCriticalSection();
 252              		.loc 1 238 0
 253 000e FFF7FEFF 		bl	CyEnterCriticalSection
 254              	.LVL15:
 239:.\Generated_Source\PSoC4/Comp_1.c ****     config = Comp_1_CONFIG_REG & (uint32)~Comp_1_CONFIG_INTR_MASK;
 255              		.loc 1 239 0
 256 0012 064B     		ldr	r3, .L18+4
 257 0014 1968     		ldr	r1, [r3]
 258 0016 064A     		ldr	r2, .L18+8
 259 0018 0A40     		and	r2, r1
 260              	.LVL16:
 240:.\Generated_Source\PSoC4/Comp_1.c ****     Comp_1_CONFIG_REG = config | Comp_1_internalIntr;
 261              		.loc 1 240 0
 262 001a 2168     		ldr	r1, [r4]
 263 001c 0A43     		orr	r2, r1
 264              	.LVL17:
 265 001e 1A60     		str	r2, [r3]
 241:.\Generated_Source\PSoC4/Comp_1.c ****     CyExitCriticalSection(enableInterrupts);
 266              		.loc 1 241 0
ARM GAS  C:\Users\kbuchi\AppData\Local\Temp\ccLgzImJ.s 			page 10


 267 0020 FFF7FEFF 		bl	CyExitCriticalSection
 268              	.LVL18:
 242:.\Generated_Source\PSoC4/Comp_1.c **** }
 269              		.loc 1 242 0
 270              		@ sp needed
 271 0024 10BD     		pop	{r4, pc}
 272              	.L19:
 273 0026 C046     		.align	2
 274              	.L18:
 275 0028 00000000 		.word	.LANCHOR0
 276 002c 04000A40 		.word	1074397188
 277 0030 FFCFFFFF 		.word	-12289
 278              		.cfi_endproc
 279              	.LFE5:
 280              		.size	Comp_1_SetInterruptMode, .-Comp_1_SetInterruptMode
 281              		.section	.text.Comp_1_GetInterruptSource,"ax",%progbits
 282              		.align	2
 283              		.global	Comp_1_GetInterruptSource
 284              		.code	16
 285              		.thumb_func
 286              		.type	Comp_1_GetInterruptSource, %function
 287              	Comp_1_GetInterruptSource:
 288              	.LFB6:
 243:.\Generated_Source\PSoC4/Comp_1.c **** 
 244:.\Generated_Source\PSoC4/Comp_1.c **** 
 245:.\Generated_Source\PSoC4/Comp_1.c **** /*******************************************************************************
 246:.\Generated_Source\PSoC4/Comp_1.c **** * Function Name: Comp_1_GetInterruptSource
 247:.\Generated_Source\PSoC4/Comp_1.c **** ********************************************************************************
 248:.\Generated_Source\PSoC4/Comp_1.c **** *
 249:.\Generated_Source\PSoC4/Comp_1.c **** * Summary:
 250:.\Generated_Source\PSoC4/Comp_1.c **** *  Gets the interrupt requests. This function is for use when using the combined
 251:.\Generated_Source\PSoC4/Comp_1.c **** *  interrupt signal from the global signal reference. This function from either
 252:.\Generated_Source\PSoC4/Comp_1.c **** *  component instance can be used to determine the interrupt source for both the
 253:.\Generated_Source\PSoC4/Comp_1.c **** *  interrupts combined.
 254:.\Generated_Source\PSoC4/Comp_1.c **** *
 255:.\Generated_Source\PSoC4/Comp_1.c **** * Parameters:
 256:.\Generated_Source\PSoC4/Comp_1.c **** *  None
 257:.\Generated_Source\PSoC4/Comp_1.c **** *
 258:.\Generated_Source\PSoC4/Comp_1.c **** * Return:
 259:.\Generated_Source\PSoC4/Comp_1.c **** *  uint32: Interrupt source. Each component instance has a mask value:
 260:.\Generated_Source\PSoC4/Comp_1.c **** *  Comp_1_INTR.
 261:.\Generated_Source\PSoC4/Comp_1.c **** *
 262:.\Generated_Source\PSoC4/Comp_1.c **** *******************************************************************************/
 263:.\Generated_Source\PSoC4/Comp_1.c **** uint32 Comp_1_GetInterruptSource(void)
 264:.\Generated_Source\PSoC4/Comp_1.c **** {
 289              		.loc 1 264 0
 290              		.cfi_startproc
 265:.\Generated_Source\PSoC4/Comp_1.c ****     return (Comp_1_INTR_REG); 
 291              		.loc 1 265 0
 292 0000 014B     		ldr	r3, .L21
 293 0002 1868     		ldr	r0, [r3]
 266:.\Generated_Source\PSoC4/Comp_1.c **** }
 294              		.loc 1 266 0
 295              		@ sp needed
 296 0004 7047     		bx	lr
 297              	.L22:
 298 0006 C046     		.align	2
ARM GAS  C:\Users\kbuchi\AppData\Local\Temp\ccLgzImJ.s 			page 11


 299              	.L21:
 300 0008 0C000A40 		.word	1074397196
 301              		.cfi_endproc
 302              	.LFE6:
 303              		.size	Comp_1_GetInterruptSource, .-Comp_1_GetInterruptSource
 304              		.section	.text.Comp_1_ClearInterrupt,"ax",%progbits
 305              		.align	2
 306              		.global	Comp_1_ClearInterrupt
 307              		.code	16
 308              		.thumb_func
 309              		.type	Comp_1_ClearInterrupt, %function
 310              	Comp_1_ClearInterrupt:
 311              	.LFB7:
 267:.\Generated_Source\PSoC4/Comp_1.c **** 
 268:.\Generated_Source\PSoC4/Comp_1.c **** 
 269:.\Generated_Source\PSoC4/Comp_1.c **** /*******************************************************************************
 270:.\Generated_Source\PSoC4/Comp_1.c **** * Function Name: Comp_1_ClearInterrupt
 271:.\Generated_Source\PSoC4/Comp_1.c **** ********************************************************************************
 272:.\Generated_Source\PSoC4/Comp_1.c **** *
 273:.\Generated_Source\PSoC4/Comp_1.c **** * Summary:
 274:.\Generated_Source\PSoC4/Comp_1.c **** *  Clears the interrupt request. This function is for use when using the
 275:.\Generated_Source\PSoC4/Comp_1.c **** *  combined interrupt signal from the global signal reference. This function
 276:.\Generated_Source\PSoC4/Comp_1.c **** *  from either component instance can be used to clear either or both
 277:.\Generated_Source\PSoC4/Comp_1.c **** *  interrupts.
 278:.\Generated_Source\PSoC4/Comp_1.c **** *
 279:.\Generated_Source\PSoC4/Comp_1.c **** * Parameters:
 280:.\Generated_Source\PSoC4/Comp_1.c **** *  uint32 interruptMask: Mask of interrupts to clear. Each component instance
 281:.\Generated_Source\PSoC4/Comp_1.c **** *  has a mask value: Comp_1_INTR.
 282:.\Generated_Source\PSoC4/Comp_1.c **** *
 283:.\Generated_Source\PSoC4/Comp_1.c **** * Return:
 284:.\Generated_Source\PSoC4/Comp_1.c **** *  None
 285:.\Generated_Source\PSoC4/Comp_1.c **** *
 286:.\Generated_Source\PSoC4/Comp_1.c **** *******************************************************************************/
 287:.\Generated_Source\PSoC4/Comp_1.c **** void Comp_1_ClearInterrupt(uint32 interruptMask)
 288:.\Generated_Source\PSoC4/Comp_1.c **** {   
 312              		.loc 1 288 0
 313              		.cfi_startproc
 314              	.LVL19:
 289:.\Generated_Source\PSoC4/Comp_1.c ****     Comp_1_INTR_REG = interruptMask;
 315              		.loc 1 289 0
 316 0000 014B     		ldr	r3, .L24
 317 0002 1860     		str	r0, [r3]
 290:.\Generated_Source\PSoC4/Comp_1.c **** }
 318              		.loc 1 290 0
 319              		@ sp needed
 320 0004 7047     		bx	lr
 321              	.L25:
 322 0006 C046     		.align	2
 323              	.L24:
 324 0008 0C000A40 		.word	1074397196
 325              		.cfi_endproc
 326              	.LFE7:
 327              		.size	Comp_1_ClearInterrupt, .-Comp_1_ClearInterrupt
 328              		.section	.text.Comp_1_SetInterrupt,"ax",%progbits
 329              		.align	2
 330              		.global	Comp_1_SetInterrupt
 331              		.code	16
ARM GAS  C:\Users\kbuchi\AppData\Local\Temp\ccLgzImJ.s 			page 12


 332              		.thumb_func
 333              		.type	Comp_1_SetInterrupt, %function
 334              	Comp_1_SetInterrupt:
 335              	.LFB8:
 291:.\Generated_Source\PSoC4/Comp_1.c **** 
 292:.\Generated_Source\PSoC4/Comp_1.c **** 
 293:.\Generated_Source\PSoC4/Comp_1.c **** /*******************************************************************************
 294:.\Generated_Source\PSoC4/Comp_1.c **** * Function Name: Comp_1_SetInterrupt
 295:.\Generated_Source\PSoC4/Comp_1.c **** ********************************************************************************
 296:.\Generated_Source\PSoC4/Comp_1.c **** *
 297:.\Generated_Source\PSoC4/Comp_1.c **** * Summary:
 298:.\Generated_Source\PSoC4/Comp_1.c **** *  Sets a software interrupt request. This function is for use when using the
 299:.\Generated_Source\PSoC4/Comp_1.c **** *  combined interrupt signal from the global signal reference. This function
 300:.\Generated_Source\PSoC4/Comp_1.c **** *  from either component instance can be used to trigger either or both software
 301:.\Generated_Source\PSoC4/Comp_1.c **** *  interrupts.
 302:.\Generated_Source\PSoC4/Comp_1.c **** *
 303:.\Generated_Source\PSoC4/Comp_1.c **** * Parameters:
 304:.\Generated_Source\PSoC4/Comp_1.c **** *  uint32 interruptMask: Mask of interrupts to set. Each component instance has
 305:.\Generated_Source\PSoC4/Comp_1.c **** *  a mask value: Comp_1_INTR_SET.
 306:.\Generated_Source\PSoC4/Comp_1.c **** *
 307:.\Generated_Source\PSoC4/Comp_1.c **** * Return:
 308:.\Generated_Source\PSoC4/Comp_1.c **** *  None
 309:.\Generated_Source\PSoC4/Comp_1.c **** *
 310:.\Generated_Source\PSoC4/Comp_1.c **** *******************************************************************************/
 311:.\Generated_Source\PSoC4/Comp_1.c **** void Comp_1_SetInterrupt(uint32 interruptMask)
 312:.\Generated_Source\PSoC4/Comp_1.c **** {
 336              		.loc 1 312 0
 337              		.cfi_startproc
 338              	.LVL20:
 339 0000 10B5     		push	{r4, lr}
 340              		.cfi_def_cfa_offset 8
 341              		.cfi_offset 4, -8
 342              		.cfi_offset 14, -4
 343 0002 041C     		mov	r4, r0
 313:.\Generated_Source\PSoC4/Comp_1.c ****     uint8 enableInterrupts;
 314:.\Generated_Source\PSoC4/Comp_1.c ****     
 315:.\Generated_Source\PSoC4/Comp_1.c ****     enableInterrupts = CyEnterCriticalSection();
 344              		.loc 1 315 0
 345 0004 FFF7FEFF 		bl	CyEnterCriticalSection
 346              	.LVL21:
 316:.\Generated_Source\PSoC4/Comp_1.c ****     Comp_1_INTR_SET_REG |= interruptMask;
 347              		.loc 1 316 0
 348 0008 034B     		ldr	r3, .L27
 349 000a 1A68     		ldr	r2, [r3]
 350 000c 1443     		orr	r4, r2
 351              	.LVL22:
 352 000e 1C60     		str	r4, [r3]
 317:.\Generated_Source\PSoC4/Comp_1.c ****     CyExitCriticalSection(enableInterrupts);
 353              		.loc 1 317 0
 354 0010 FFF7FEFF 		bl	CyExitCriticalSection
 355              	.LVL23:
 318:.\Generated_Source\PSoC4/Comp_1.c **** }
 356              		.loc 1 318 0
 357              		@ sp needed
 358 0014 10BD     		pop	{r4, pc}
 359              	.L28:
 360 0016 C046     		.align	2
ARM GAS  C:\Users\kbuchi\AppData\Local\Temp\ccLgzImJ.s 			page 13


 361              	.L27:
 362 0018 10000A40 		.word	1074397200
 363              		.cfi_endproc
 364              	.LFE8:
 365              		.size	Comp_1_SetInterrupt, .-Comp_1_SetInterrupt
 366              		.section	.text.Comp_1_SetHysteresis,"ax",%progbits
 367              		.align	2
 368              		.global	Comp_1_SetHysteresis
 369              		.code	16
 370              		.thumb_func
 371              		.type	Comp_1_SetHysteresis, %function
 372              	Comp_1_SetHysteresis:
 373              	.LFB9:
 319:.\Generated_Source\PSoC4/Comp_1.c **** 
 320:.\Generated_Source\PSoC4/Comp_1.c **** 
 321:.\Generated_Source\PSoC4/Comp_1.c **** /*******************************************************************************
 322:.\Generated_Source\PSoC4/Comp_1.c **** * Function Name: Comp_1_SetHysteresis
 323:.\Generated_Source\PSoC4/Comp_1.c **** ********************************************************************************
 324:.\Generated_Source\PSoC4/Comp_1.c **** *
 325:.\Generated_Source\PSoC4/Comp_1.c **** * Summary:
 326:.\Generated_Source\PSoC4/Comp_1.c **** *  Enables or disables the hysteresis.
 327:.\Generated_Source\PSoC4/Comp_1.c **** *
 328:.\Generated_Source\PSoC4/Comp_1.c **** * Parameters:
 329:.\Generated_Source\PSoC4/Comp_1.c **** *  hysteresis: (uint32) Enables or disables the hysteresis setting.
 330:.\Generated_Source\PSoC4/Comp_1.c **** *  Comp_1_HYST_ENABLE     - Enable hysteresis
 331:.\Generated_Source\PSoC4/Comp_1.c **** *  Comp_1_HYST_DISABLE    - Disable hysteresis
 332:.\Generated_Source\PSoC4/Comp_1.c **** *
 333:.\Generated_Source\PSoC4/Comp_1.c **** * Return:
 334:.\Generated_Source\PSoC4/Comp_1.c **** *  None
 335:.\Generated_Source\PSoC4/Comp_1.c **** *
 336:.\Generated_Source\PSoC4/Comp_1.c **** *******************************************************************************/
 337:.\Generated_Source\PSoC4/Comp_1.c **** void Comp_1_SetHysteresis(uint32 hysteresis)
 338:.\Generated_Source\PSoC4/Comp_1.c **** {
 374              		.loc 1 338 0
 375              		.cfi_startproc
 376              	.LVL24:
 377 0000 10B5     		push	{r4, lr}
 378              		.cfi_def_cfa_offset 8
 379              		.cfi_offset 4, -8
 380              		.cfi_offset 14, -4
 381 0002 041C     		mov	r4, r0
 339:.\Generated_Source\PSoC4/Comp_1.c ****     uint8 enableInterrupts;
 340:.\Generated_Source\PSoC4/Comp_1.c ****     
 341:.\Generated_Source\PSoC4/Comp_1.c ****     enableInterrupts = CyEnterCriticalSection();
 382              		.loc 1 341 0
 383 0004 FFF7FEFF 		bl	CyEnterCriticalSection
 384              	.LVL25:
 342:.\Generated_Source\PSoC4/Comp_1.c ****     if(0u != hysteresis)
 385              		.loc 1 342 0
 386 0008 002C     		cmp	r4, #0
 387 000a 06D0     		beq	.L30
 343:.\Generated_Source\PSoC4/Comp_1.c ****     {
 344:.\Generated_Source\PSoC4/Comp_1.c ****         Comp_1_CONFIG_REG |= Comp_1_CONFIG_HYST;
 388              		.loc 1 344 0
 389 000c 074B     		ldr	r3, .L32
 390 000e 1968     		ldr	r1, [r3]
 391 0010 8022     		mov	r2, #128
ARM GAS  C:\Users\kbuchi\AppData\Local\Temp\ccLgzImJ.s 			page 14


 392 0012 D200     		lsl	r2, r2, #3
 393 0014 0A43     		orr	r2, r1
 394 0016 1A60     		str	r2, [r3]
 395 0018 04E0     		b	.L31
 396              	.L30:
 345:.\Generated_Source\PSoC4/Comp_1.c ****     }
 346:.\Generated_Source\PSoC4/Comp_1.c ****     else
 347:.\Generated_Source\PSoC4/Comp_1.c ****     {
 348:.\Generated_Source\PSoC4/Comp_1.c ****         Comp_1_CONFIG_REG &= (uint32)~Comp_1_CONFIG_HYST;
 397              		.loc 1 348 0
 398 001a 044B     		ldr	r3, .L32
 399 001c 1968     		ldr	r1, [r3]
 400 001e 044A     		ldr	r2, .L32+4
 401 0020 0A40     		and	r2, r1
 402 0022 1A60     		str	r2, [r3]
 403              	.L31:
 349:.\Generated_Source\PSoC4/Comp_1.c ****     }
 350:.\Generated_Source\PSoC4/Comp_1.c ****     CyExitCriticalSection(enableInterrupts);
 404              		.loc 1 350 0
 405 0024 FFF7FEFF 		bl	CyExitCriticalSection
 406              	.LVL26:
 351:.\Generated_Source\PSoC4/Comp_1.c **** }
 407              		.loc 1 351 0
 408              		@ sp needed
 409              	.LVL27:
 410 0028 10BD     		pop	{r4, pc}
 411              	.L33:
 412 002a C046     		.align	2
 413              	.L32:
 414 002c 04000A40 		.word	1074397188
 415 0030 FFFBFFFF 		.word	-1025
 416              		.cfi_endproc
 417              	.LFE9:
 418              		.size	Comp_1_SetHysteresis, .-Comp_1_SetHysteresis
 419              		.section	.text.Comp_1_SetFilter,"ax",%progbits
 420              		.align	2
 421              		.global	Comp_1_SetFilter
 422              		.code	16
 423              		.thumb_func
 424              		.type	Comp_1_SetFilter, %function
 425              	Comp_1_SetFilter:
 426              	.LFB10:
 352:.\Generated_Source\PSoC4/Comp_1.c **** 
 353:.\Generated_Source\PSoC4/Comp_1.c **** 
 354:.\Generated_Source\PSoC4/Comp_1.c **** /*******************************************************************************
 355:.\Generated_Source\PSoC4/Comp_1.c **** * Function Name: Comp_1_SetFilter
 356:.\Generated_Source\PSoC4/Comp_1.c **** ********************************************************************************
 357:.\Generated_Source\PSoC4/Comp_1.c **** *
 358:.\Generated_Source\PSoC4/Comp_1.c **** * Summary:
 359:.\Generated_Source\PSoC4/Comp_1.c **** *  Enables or disables the digital filter. This still exists for saving backward 
 360:.\Generated_Source\PSoC4/Comp_1.c **** *  compatibility, but not recommended for using.
 361:.\Generated_Source\PSoC4/Comp_1.c **** *  This API is DEPRECATED and should not be used in new projects.
 362:.\Generated_Source\PSoC4/Comp_1.c **** *
 363:.\Generated_Source\PSoC4/Comp_1.c **** * Parameters:
 364:.\Generated_Source\PSoC4/Comp_1.c **** *  uint32 filter: filter enable.
 365:.\Generated_Source\PSoC4/Comp_1.c **** *  Comp_1_FILT_ENABLE  - Enable filter
 366:.\Generated_Source\PSoC4/Comp_1.c **** *  Comp_1_FILT_DISABLE - Disable filter
ARM GAS  C:\Users\kbuchi\AppData\Local\Temp\ccLgzImJ.s 			page 15


 367:.\Generated_Source\PSoC4/Comp_1.c **** *
 368:.\Generated_Source\PSoC4/Comp_1.c **** * Return:
 369:.\Generated_Source\PSoC4/Comp_1.c **** *  None
 370:.\Generated_Source\PSoC4/Comp_1.c **** *
 371:.\Generated_Source\PSoC4/Comp_1.c **** *******************************************************************************/
 372:.\Generated_Source\PSoC4/Comp_1.c **** void Comp_1_SetFilter(uint32 filter)
 373:.\Generated_Source\PSoC4/Comp_1.c **** {
 427              		.loc 1 373 0
 428              		.cfi_startproc
 429              	.LVL28:
 430 0000 10B5     		push	{r4, lr}
 431              		.cfi_def_cfa_offset 8
 432              		.cfi_offset 4, -8
 433              		.cfi_offset 14, -4
 434 0002 041C     		mov	r4, r0
 374:.\Generated_Source\PSoC4/Comp_1.c ****     uint8 enableInterrupts;
 375:.\Generated_Source\PSoC4/Comp_1.c ****     
 376:.\Generated_Source\PSoC4/Comp_1.c ****     enableInterrupts = CyEnterCriticalSection();
 435              		.loc 1 376 0
 436 0004 FFF7FEFF 		bl	CyEnterCriticalSection
 437              	.LVL29:
 377:.\Generated_Source\PSoC4/Comp_1.c ****     if( 0u != filter)
 438              		.loc 1 377 0
 439 0008 002C     		cmp	r4, #0
 440 000a 06D0     		beq	.L35
 378:.\Generated_Source\PSoC4/Comp_1.c ****     {
 379:.\Generated_Source\PSoC4/Comp_1.c ****         Comp_1_CONFIG_REG |= Comp_1_CONFIG_FILT;
 441              		.loc 1 379 0
 442 000c 074B     		ldr	r3, .L37
 443 000e 1968     		ldr	r1, [r3]
 444 0010 8022     		mov	r2, #128
 445 0012 1201     		lsl	r2, r2, #4
 446 0014 0A43     		orr	r2, r1
 447 0016 1A60     		str	r2, [r3]
 448 0018 04E0     		b	.L36
 449              	.L35:
 380:.\Generated_Source\PSoC4/Comp_1.c ****     }
 381:.\Generated_Source\PSoC4/Comp_1.c ****     else
 382:.\Generated_Source\PSoC4/Comp_1.c ****     {
 383:.\Generated_Source\PSoC4/Comp_1.c ****         Comp_1_CONFIG_REG &= (uint32)~Comp_1_CONFIG_FILT;
 450              		.loc 1 383 0
 451 001a 044B     		ldr	r3, .L37
 452 001c 1968     		ldr	r1, [r3]
 453 001e 044A     		ldr	r2, .L37+4
 454 0020 0A40     		and	r2, r1
 455 0022 1A60     		str	r2, [r3]
 456              	.L36:
 384:.\Generated_Source\PSoC4/Comp_1.c ****     }
 385:.\Generated_Source\PSoC4/Comp_1.c ****     CyExitCriticalSection(enableInterrupts);
 457              		.loc 1 385 0
 458 0024 FFF7FEFF 		bl	CyExitCriticalSection
 459              	.LVL30:
 386:.\Generated_Source\PSoC4/Comp_1.c **** }
 460              		.loc 1 386 0
 461              		@ sp needed
 462              	.LVL31:
 463 0028 10BD     		pop	{r4, pc}
ARM GAS  C:\Users\kbuchi\AppData\Local\Temp\ccLgzImJ.s 			page 16


 464              	.L38:
 465 002a C046     		.align	2
 466              	.L37:
 467 002c 04000A40 		.word	1074397188
 468 0030 FFF7FFFF 		.word	-2049
 469              		.cfi_endproc
 470              	.LFE10:
 471              		.size	Comp_1_SetFilter, .-Comp_1_SetFilter
 472              		.section	.text.Comp_1_GetCompare,"ax",%progbits
 473              		.align	2
 474              		.global	Comp_1_GetCompare
 475              		.code	16
 476              		.thumb_func
 477              		.type	Comp_1_GetCompare, %function
 478              	Comp_1_GetCompare:
 479              	.LFB11:
 387:.\Generated_Source\PSoC4/Comp_1.c **** 
 388:.\Generated_Source\PSoC4/Comp_1.c **** 
 389:.\Generated_Source\PSoC4/Comp_1.c **** /*******************************************************************************
 390:.\Generated_Source\PSoC4/Comp_1.c **** * Function Name: Comp_1_GetCompare
 391:.\Generated_Source\PSoC4/Comp_1.c **** ********************************************************************************
 392:.\Generated_Source\PSoC4/Comp_1.c **** *
 393:.\Generated_Source\PSoC4/Comp_1.c **** * Summary:
 394:.\Generated_Source\PSoC4/Comp_1.c **** *  This function returns a nonzero value when the voltage connected to the
 395:.\Generated_Source\PSoC4/Comp_1.c **** *  positive input is greater than the negative input voltage.
 396:.\Generated_Source\PSoC4/Comp_1.c **** *  This function reads the direct (unflopped) comparator output which can also be 
 397:.\Generated_Source\PSoC4/Comp_1.c **** *  metastable (since it may result in incorrect data).
 398:.\Generated_Source\PSoC4/Comp_1.c **** *
 399:.\Generated_Source\PSoC4/Comp_1.c **** * Parameters:
 400:.\Generated_Source\PSoC4/Comp_1.c **** *  None
 401:.\Generated_Source\PSoC4/Comp_1.c **** *
 402:.\Generated_Source\PSoC4/Comp_1.c **** * Return:
 403:.\Generated_Source\PSoC4/Comp_1.c **** *  (uint32) Comparator output state. This value is not impacted by the interrupt
 404:.\Generated_Source\PSoC4/Comp_1.c **** *  edge detect setting:
 405:.\Generated_Source\PSoC4/Comp_1.c **** *   0 - if positive input is less than negative one.
 406:.\Generated_Source\PSoC4/Comp_1.c **** *   1 - if positive input greater than negative one.
 407:.\Generated_Source\PSoC4/Comp_1.c **** *
 408:.\Generated_Source\PSoC4/Comp_1.c **** *******************************************************************************/
 409:.\Generated_Source\PSoC4/Comp_1.c **** uint32 Comp_1_GetCompare(void)
 410:.\Generated_Source\PSoC4/Comp_1.c **** {
 480              		.loc 1 410 0
 481              		.cfi_startproc
 411:.\Generated_Source\PSoC4/Comp_1.c ****     return((uint32)((0u == (Comp_1_CONFIG_REG & Comp_1_CONFIG_OUT)) ? 0u : 1u));
 482              		.loc 1 411 0
 483 0000 024B     		ldr	r3, .L40
 484 0002 1868     		ldr	r0, [r3]
 485 0004 4004     		lsl	r0, r0, #17
 486 0006 C00F     		lsr	r0, r0, #31
 412:.\Generated_Source\PSoC4/Comp_1.c **** }
 487              		.loc 1 412 0
 488              		@ sp needed
 489 0008 7047     		bx	lr
 490              	.L41:
 491 000a C046     		.align	2
 492              	.L40:
 493 000c 04000A40 		.word	1074397188
 494              		.cfi_endproc
ARM GAS  C:\Users\kbuchi\AppData\Local\Temp\ccLgzImJ.s 			page 17


 495              	.LFE11:
 496              		.size	Comp_1_GetCompare, .-Comp_1_GetCompare
 497              		.section	.text.Comp_1_ZeroCal,"ax",%progbits
 498              		.align	2
 499              		.global	Comp_1_ZeroCal
 500              		.code	16
 501              		.thumb_func
 502              		.type	Comp_1_ZeroCal, %function
 503              	Comp_1_ZeroCal:
 504              	.LFB12:
 413:.\Generated_Source\PSoC4/Comp_1.c **** 
 414:.\Generated_Source\PSoC4/Comp_1.c **** 
 415:.\Generated_Source\PSoC4/Comp_1.c **** /*******************************************************************************
 416:.\Generated_Source\PSoC4/Comp_1.c **** * Function Name: Comp_1_ZeroCal
 417:.\Generated_Source\PSoC4/Comp_1.c **** ********************************************************************************
 418:.\Generated_Source\PSoC4/Comp_1.c **** *
 419:.\Generated_Source\PSoC4/Comp_1.c **** * Summary:
 420:.\Generated_Source\PSoC4/Comp_1.c **** *  Performs custom calibration of the input offset to minimize error for a
 421:.\Generated_Source\PSoC4/Comp_1.c **** *  specific set of conditions: comparator reference voltage, supply voltage,
 422:.\Generated_Source\PSoC4/Comp_1.c **** *  and operating temperature. A reference voltage in the range at which the
 423:.\Generated_Source\PSoC4/Comp_1.c **** *  comparator will be used must be applied to one of the inputs. The two inputs
 424:.\Generated_Source\PSoC4/Comp_1.c **** *  will be shorted internally to perform the offset calibration.
 425:.\Generated_Source\PSoC4/Comp_1.c **** *
 426:.\Generated_Source\PSoC4/Comp_1.c **** * Parameters:
 427:.\Generated_Source\PSoC4/Comp_1.c **** *  None
 428:.\Generated_Source\PSoC4/Comp_1.c **** *
 429:.\Generated_Source\PSoC4/Comp_1.c **** * Return:
 430:.\Generated_Source\PSoC4/Comp_1.c **** *  The value from the comparator trim register after the offset calibration is
 431:.\Generated_Source\PSoC4/Comp_1.c **** *  complete. This value has the same format as the input parameter for the
 432:.\Generated_Source\PSoC4/Comp_1.c **** *  Comp_1_LoadTrim() API routine.
 433:.\Generated_Source\PSoC4/Comp_1.c **** *
 434:.\Generated_Source\PSoC4/Comp_1.c **** *******************************************************************************/
 435:.\Generated_Source\PSoC4/Comp_1.c **** uint32 Comp_1_ZeroCal(void)
 436:.\Generated_Source\PSoC4/Comp_1.c **** {
 505              		.loc 1 436 0
 506              		.cfi_startproc
 507 0000 70B5     		push	{r4, r5, r6, lr}
 508              		.cfi_def_cfa_offset 16
 509              		.cfi_offset 4, -16
 510              		.cfi_offset 5, -12
 511              		.cfi_offset 6, -8
 512              		.cfi_offset 14, -4
 437:.\Generated_Source\PSoC4/Comp_1.c ****     uint32 cmpOut;
 438:.\Generated_Source\PSoC4/Comp_1.c ****     uint32 i;
 439:.\Generated_Source\PSoC4/Comp_1.c **** 
 440:.\Generated_Source\PSoC4/Comp_1.c ****     Comp_1_DFT_REG |= Comp_1_DFT_CAL_EN;
 513              		.loc 1 440 0
 514 0002 264B     		ldr	r3, .L51
 515 0004 1968     		ldr	r1, [r3]
 516 0006 0122     		mov	r2, #1
 517 0008 0A43     		orr	r2, r1
 518 000a 1A60     		str	r2, [r3]
 441:.\Generated_Source\PSoC4/Comp_1.c ****     Comp_1_TRIMA_REG = 0u;
 519              		.loc 1 441 0
 520 000c 0023     		mov	r3, #0
 521 000e 244A     		ldr	r2, .L51+4
 522 0010 1360     		str	r3, [r2]
ARM GAS  C:\Users\kbuchi\AppData\Local\Temp\ccLgzImJ.s 			page 18


 442:.\Generated_Source\PSoC4/Comp_1.c ****     Comp_1_TRIMB_REG = 0u;
 523              		.loc 1 442 0
 524 0012 244A     		ldr	r2, .L51+8
 525 0014 1360     		str	r3, [r2]
 443:.\Generated_Source\PSoC4/Comp_1.c **** 
 444:.\Generated_Source\PSoC4/Comp_1.c ****     CyDelayUs(1u);
 526              		.loc 1 444 0
 527 0016 0120     		mov	r0, #1
 528 0018 FFF7FEFF 		bl	CyDelayUs
 529              	.LVL32:
 445:.\Generated_Source\PSoC4/Comp_1.c **** 
 446:.\Generated_Source\PSoC4/Comp_1.c ****     cmpOut = Comp_1_GetCompare();
 530              		.loc 1 446 0
 531 001c FFF7FEFF 		bl	Comp_1_GetCompare
 532              	.LVL33:
 533 0020 061E     		sub	r6, r0, #0
 534              	.LVL34:
 447:.\Generated_Source\PSoC4/Comp_1.c **** 
 448:.\Generated_Source\PSoC4/Comp_1.c ****     if(0u != cmpOut)
 535              		.loc 1 448 0
 536 0022 02D0     		beq	.L43
 449:.\Generated_Source\PSoC4/Comp_1.c ****     {
 450:.\Generated_Source\PSoC4/Comp_1.c ****         Comp_1_TRIMA_REG = ((uint32) 0x01u << Comp_1_TRIMA_SIGNBIT);
 537              		.loc 1 450 0
 538 0024 1022     		mov	r2, #16
 539 0026 1E4B     		ldr	r3, .L51+4
 540 0028 1A60     		str	r2, [r3]
 541              	.L43:
 436:.\Generated_Source\PSoC4/Comp_1.c **** {
 542              		.loc 1 436 0 discriminator 1
 543 002a 1024     		mov	r4, #16
 451:.\Generated_Source\PSoC4/Comp_1.c ****     }
 452:.\Generated_Source\PSoC4/Comp_1.c **** 
 453:.\Generated_Source\PSoC4/Comp_1.c ****     for(i = (Comp_1_TRIMA_MAX_VALUE +1u ); i != 0u; i--)
 454:.\Generated_Source\PSoC4/Comp_1.c ****     {
 455:.\Generated_Source\PSoC4/Comp_1.c ****         Comp_1_TRIMA_REG++;
 544              		.loc 1 455 0 discriminator 1
 545 002c 1C4D     		ldr	r5, .L51+4
 546 002e 0AE0     		b	.L44
 547              	.LVL35:
 548              	.L46:
 549              		.loc 1 455 0 is_stmt 0
 550 0030 2B68     		ldr	r3, [r5]
 551 0032 0133     		add	r3, r3, #1
 552 0034 2B60     		str	r3, [r5]
 456:.\Generated_Source\PSoC4/Comp_1.c ****         CyDelayUs(1u);
 553              		.loc 1 456 0 is_stmt 1
 554 0036 0120     		mov	r0, #1
 555 0038 FFF7FEFF 		bl	CyDelayUs
 556              	.LVL36:
 457:.\Generated_Source\PSoC4/Comp_1.c ****         if(cmpOut != Comp_1_GetCompare())
 557              		.loc 1 457 0
 558 003c FFF7FEFF 		bl	Comp_1_GetCompare
 559              	.LVL37:
 560 0040 B042     		cmp	r0, r6
 561 0042 02D1     		bne	.L45
 453:.\Generated_Source\PSoC4/Comp_1.c ****     for(i = (Comp_1_TRIMA_MAX_VALUE +1u ); i != 0u; i--)
ARM GAS  C:\Users\kbuchi\AppData\Local\Temp\ccLgzImJ.s 			page 19


 562              		.loc 1 453 0
 563 0044 013C     		sub	r4, r4, #1
 564              	.LVL38:
 565              	.L44:
 453:.\Generated_Source\PSoC4/Comp_1.c ****     for(i = (Comp_1_TRIMA_MAX_VALUE +1u ); i != 0u; i--)
 566              		.loc 1 453 0 is_stmt 0 discriminator 1
 567 0046 002C     		cmp	r4, #0
 568 0048 F2D1     		bne	.L46
 569              	.L45:
 458:.\Generated_Source\PSoC4/Comp_1.c ****         {
 459:.\Generated_Source\PSoC4/Comp_1.c ****             break;
 460:.\Generated_Source\PSoC4/Comp_1.c ****         }
 461:.\Generated_Source\PSoC4/Comp_1.c ****     }
 462:.\Generated_Source\PSoC4/Comp_1.c **** 
 463:.\Generated_Source\PSoC4/Comp_1.c ****     if(((uint32)(Comp_1_CONFIG_REG >> Comp_1_CONFIG_REG_SHIFT) &
 570              		.loc 1 463 0 is_stmt 1
 571 004a 174B     		ldr	r3, .L51+12
 572 004c 1B68     		ldr	r3, [r3]
 573 004e 9B05     		lsl	r3, r3, #22
 574 0050 9B0F     		lsr	r3, r3, #30
 575 0052 16D1     		bne	.L47
 464:.\Generated_Source\PSoC4/Comp_1.c ****         Comp_1_SPEED_PARAM_MASK) == Comp_1_MED_SPEED)
 465:.\Generated_Source\PSoC4/Comp_1.c ****     {
 466:.\Generated_Source\PSoC4/Comp_1.c ****         cmpOut = Comp_1_GetCompare();
 576              		.loc 1 466 0
 577 0054 FFF7FEFF 		bl	Comp_1_GetCompare
 578              	.LVL39:
 579 0058 061E     		sub	r6, r0, #0
 580              	.LVL40:
 467:.\Generated_Source\PSoC4/Comp_1.c **** 
 468:.\Generated_Source\PSoC4/Comp_1.c ****         if(0u == cmpOut)
 581              		.loc 1 468 0
 582 005a 02D1     		bne	.L48
 469:.\Generated_Source\PSoC4/Comp_1.c ****         {
 470:.\Generated_Source\PSoC4/Comp_1.c ****             Comp_1_TRIMB_REG = ((uint32)1u << Comp_1_TRIMB_SIGNBIT);
 583              		.loc 1 470 0
 584 005c 1022     		mov	r2, #16
 585 005e 114B     		ldr	r3, .L51+8
 586 0060 1A60     		str	r2, [r3]
 587              	.L48:
 436:.\Generated_Source\PSoC4/Comp_1.c **** {
 588              		.loc 1 436 0 discriminator 1
 589 0062 1024     		mov	r4, #16
 590              	.LVL41:
 471:.\Generated_Source\PSoC4/Comp_1.c ****         }
 472:.\Generated_Source\PSoC4/Comp_1.c **** 
 473:.\Generated_Source\PSoC4/Comp_1.c ****         for(i = (Comp_1_TRIMB_MAX_VALUE +1u ); i != 0u; i--)
 474:.\Generated_Source\PSoC4/Comp_1.c ****         {
 475:.\Generated_Source\PSoC4/Comp_1.c ****             Comp_1_TRIMB_REG++;
 591              		.loc 1 475 0 discriminator 1
 592 0064 0F4D     		ldr	r5, .L51+8
 593 0066 0AE0     		b	.L49
 594              	.LVL42:
 595              	.L50:
 596              		.loc 1 475 0 is_stmt 0
 597 0068 2B68     		ldr	r3, [r5]
 598 006a 0133     		add	r3, r3, #1
ARM GAS  C:\Users\kbuchi\AppData\Local\Temp\ccLgzImJ.s 			page 20


 599 006c 2B60     		str	r3, [r5]
 476:.\Generated_Source\PSoC4/Comp_1.c ****             CyDelayUs(1u);
 600              		.loc 1 476 0 is_stmt 1
 601 006e 0120     		mov	r0, #1
 602 0070 FFF7FEFF 		bl	CyDelayUs
 603              	.LVL43:
 477:.\Generated_Source\PSoC4/Comp_1.c ****             if(cmpOut != Comp_1_GetCompare())
 604              		.loc 1 477 0
 605 0074 FFF7FEFF 		bl	Comp_1_GetCompare
 606              	.LVL44:
 607 0078 B042     		cmp	r0, r6
 608 007a 02D1     		bne	.L47
 473:.\Generated_Source\PSoC4/Comp_1.c ****         for(i = (Comp_1_TRIMB_MAX_VALUE +1u ); i != 0u; i--)
 609              		.loc 1 473 0
 610 007c 013C     		sub	r4, r4, #1
 611              	.LVL45:
 612              	.L49:
 473:.\Generated_Source\PSoC4/Comp_1.c ****         for(i = (Comp_1_TRIMB_MAX_VALUE +1u ); i != 0u; i--)
 613              		.loc 1 473 0 is_stmt 0 discriminator 1
 614 007e 002C     		cmp	r4, #0
 615 0080 F2D1     		bne	.L50
 616              	.L47:
 478:.\Generated_Source\PSoC4/Comp_1.c ****             {
 479:.\Generated_Source\PSoC4/Comp_1.c ****                 break;
 480:.\Generated_Source\PSoC4/Comp_1.c ****             }
 481:.\Generated_Source\PSoC4/Comp_1.c ****         }
 482:.\Generated_Source\PSoC4/Comp_1.c ****     }
 483:.\Generated_Source\PSoC4/Comp_1.c **** 
 484:.\Generated_Source\PSoC4/Comp_1.c ****     Comp_1_DFT_REG &= ((uint32)~Comp_1_DFT_CAL_EN);
 617              		.loc 1 484 0 is_stmt 1
 618 0082 064B     		ldr	r3, .L51
 619 0084 1A68     		ldr	r2, [r3]
 620 0086 0121     		mov	r1, #1
 621 0088 8A43     		bic	r2, r1
 622 008a 1A60     		str	r2, [r3]
 485:.\Generated_Source\PSoC4/Comp_1.c **** 
 486:.\Generated_Source\PSoC4/Comp_1.c ****     return (Comp_1_TRIMA_REG | ((uint32)Comp_1_TRIMB_REG << Comp_1_TRIMB_SHIFT));
 623              		.loc 1 486 0
 624 008c 044B     		ldr	r3, .L51+4
 625 008e 1B68     		ldr	r3, [r3]
 626 0090 044A     		ldr	r2, .L51+8
 627 0092 1068     		ldr	r0, [r2]
 628 0094 0002     		lsl	r0, r0, #8
 629 0096 1843     		orr	r0, r3
 487:.\Generated_Source\PSoC4/Comp_1.c **** }
 630              		.loc 1 487 0
 631              		@ sp needed
 632              	.LVL46:
 633              	.LVL47:
 634 0098 70BD     		pop	{r4, r5, r6, pc}
 635              	.L52:
 636 009a C046     		.align	2
 637              	.L51:
 638 009c 08000A40 		.word	1074397192
 639 00a0 08FF0A40 		.word	1074462472
 640 00a4 0CFF0A40 		.word	1074462476
 641 00a8 04000A40 		.word	1074397188
ARM GAS  C:\Users\kbuchi\AppData\Local\Temp\ccLgzImJ.s 			page 21


 642              		.cfi_endproc
 643              	.LFE12:
 644              		.size	Comp_1_ZeroCal, .-Comp_1_ZeroCal
 645              		.section	.text.Comp_1_LoadTrim,"ax",%progbits
 646              		.align	2
 647              		.global	Comp_1_LoadTrim
 648              		.code	16
 649              		.thumb_func
 650              		.type	Comp_1_LoadTrim, %function
 651              	Comp_1_LoadTrim:
 652              	.LFB13:
 488:.\Generated_Source\PSoC4/Comp_1.c **** 
 489:.\Generated_Source\PSoC4/Comp_1.c **** 
 490:.\Generated_Source\PSoC4/Comp_1.c **** /*******************************************************************************
 491:.\Generated_Source\PSoC4/Comp_1.c **** * Function Name: Comp_1_LoadTrim
 492:.\Generated_Source\PSoC4/Comp_1.c **** ********************************************************************************
 493:.\Generated_Source\PSoC4/Comp_1.c **** *
 494:.\Generated_Source\PSoC4/Comp_1.c **** * Summary:
 495:.\Generated_Source\PSoC4/Comp_1.c **** *  This function writes a value into the comparator offset trim register.
 496:.\Generated_Source\PSoC4/Comp_1.c **** *
 497:.\Generated_Source\PSoC4/Comp_1.c **** * Parameters:
 498:.\Generated_Source\PSoC4/Comp_1.c **** *  trimVal: Value to be stored in the comparator offset trim register. This
 499:.\Generated_Source\PSoC4/Comp_1.c **** *  value has the same format as the parameter returned by the
 500:.\Generated_Source\PSoC4/Comp_1.c **** *  Comp_1_ZeroCal() API routine.
 501:.\Generated_Source\PSoC4/Comp_1.c **** *
 502:.\Generated_Source\PSoC4/Comp_1.c **** * Return:
 503:.\Generated_Source\PSoC4/Comp_1.c **** *  None
 504:.\Generated_Source\PSoC4/Comp_1.c **** *
 505:.\Generated_Source\PSoC4/Comp_1.c **** *******************************************************************************/
 506:.\Generated_Source\PSoC4/Comp_1.c **** void Comp_1_LoadTrim(uint32 trimVal)
 507:.\Generated_Source\PSoC4/Comp_1.c **** {
 653              		.loc 1 507 0
 654              		.cfi_startproc
 655              	.LVL48:
 508:.\Generated_Source\PSoC4/Comp_1.c ****     Comp_1_TRIMA_REG = (trimVal & Comp_1_TRIMA_MASK);
 656              		.loc 1 508 0
 657 0000 1F23     		mov	r3, #31
 658 0002 191C     		mov	r1, r3
 659 0004 0140     		and	r1, r0
 660 0006 034A     		ldr	r2, .L54
 661 0008 1160     		str	r1, [r2]
 509:.\Generated_Source\PSoC4/Comp_1.c ****     Comp_1_TRIMB_REG = ((trimVal >> Comp_1_TRIMB_SHIFT) & Comp_1_TRIMB_MASK);
 662              		.loc 1 509 0
 663 000a 000A     		lsr	r0, r0, #8
 664              	.LVL49:
 665 000c 0340     		and	r3, r0
 666 000e 024A     		ldr	r2, .L54+4
 667 0010 1360     		str	r3, [r2]
 510:.\Generated_Source\PSoC4/Comp_1.c **** }
 668              		.loc 1 510 0
 669              		@ sp needed
 670 0012 7047     		bx	lr
 671              	.L55:
 672              		.align	2
 673              	.L54:
 674 0014 08FF0A40 		.word	1074462472
 675 0018 0CFF0A40 		.word	1074462476
ARM GAS  C:\Users\kbuchi\AppData\Local\Temp\ccLgzImJ.s 			page 22


 676              		.cfi_endproc
 677              	.LFE13:
 678              		.size	Comp_1_LoadTrim, .-Comp_1_LoadTrim
 679              		.global	Comp_1_initVar
 680              		.bss
 681              		.align	2
 682              		.set	.LANCHOR0,. + 0
 683              		.type	Comp_1_internalIntr, %object
 684              		.size	Comp_1_internalIntr, 4
 685              	Comp_1_internalIntr:
 686 0000 00000000 		.space	4
 687              		.type	Comp_1_initVar, %object
 688              		.size	Comp_1_initVar, 1
 689              	Comp_1_initVar:
 690 0004 00       		.space	1
 691 0005 000000   		.text
 692              	.Letext0:
 693              		.file 2 ".\\Generated_Source\\PSoC4\\cytypes.h"
 694              		.file 3 ".\\Generated_Source\\PSoC4\\CyLib.h"