ARM GAS  C:\Users\kbuchi\AppData\Local\Temp\cc4AaGId.s 			page 1


   1              		.cpu cortex-m0
   2              		.fpu softvfp
   3              		.eabi_attribute 20, 1
   4              		.eabi_attribute 21, 1
   5              		.eabi_attribute 23, 3
   6              		.eabi_attribute 24, 1
   7              		.eabi_attribute 25, 1
   8              		.eabi_attribute 26, 1
   9              		.eabi_attribute 30, 4
  10              		.eabi_attribute 34, 0
  11              		.eabi_attribute 18, 4
  12              		.code	16
  13              		.file	"Bootloader.c"
  14              		.text
  15              	.Ltext0:
  16              		.cfi_sections	.debug_frame
  17              		.section	.text.Bootloader_LaunchBootloadable,"ax",%progbits
  18              		.align	1
  19              		.code	16
  20              		.thumb_func
  21              		.type	Bootloader_LaunchBootloadable, %function
  22              	Bootloader_LaunchBootloadable:
  23              	.LFB39:
  24              		.file 1 ".\\Generated_Source\\PSoC4\\Bootloader.c"
   1:.\Generated_Source\PSoC4/Bootloader.c **** /*******************************************************************************
   2:.\Generated_Source\PSoC4/Bootloader.c **** * File Name: Bootloader.c
   3:.\Generated_Source\PSoC4/Bootloader.c **** * Version 1.30
   4:.\Generated_Source\PSoC4/Bootloader.c **** *
   5:.\Generated_Source\PSoC4/Bootloader.c **** *  Description:
   6:.\Generated_Source\PSoC4/Bootloader.c **** *   Provides an API for the Bootloader component. The API includes functions
   7:.\Generated_Source\PSoC4/Bootloader.c **** *   for starting boot loading operations, validating the application and
   8:.\Generated_Source\PSoC4/Bootloader.c **** *   jumping to the application.
   9:.\Generated_Source\PSoC4/Bootloader.c **** *
  10:.\Generated_Source\PSoC4/Bootloader.c **** ********************************************************************************
  11:.\Generated_Source\PSoC4/Bootloader.c **** * Copyright 2008-2014, Cypress Semiconductor Corporation.  All rights reserved.
  12:.\Generated_Source\PSoC4/Bootloader.c **** * You may use this file only in accordance with the license, terms, conditions,
  13:.\Generated_Source\PSoC4/Bootloader.c **** * disclaimers, and limitations in the end user license agreement accompanying
  14:.\Generated_Source\PSoC4/Bootloader.c **** * the software package with which this file was provided.
  15:.\Generated_Source\PSoC4/Bootloader.c **** *******************************************************************************/
  16:.\Generated_Source\PSoC4/Bootloader.c **** 
  17:.\Generated_Source\PSoC4/Bootloader.c **** #include "Bootloader_PVT.h"
  18:.\Generated_Source\PSoC4/Bootloader.c **** 
  19:.\Generated_Source\PSoC4/Bootloader.c **** #include "project.h"
  20:.\Generated_Source\PSoC4/Bootloader.c **** #include <string.h>
  21:.\Generated_Source\PSoC4/Bootloader.c **** 
  22:.\Generated_Source\PSoC4/Bootloader.c **** 
  23:.\Generated_Source\PSoC4/Bootloader.c **** /*******************************************************************************
  24:.\Generated_Source\PSoC4/Bootloader.c **** * The Checksum and SizeBytes are forcefully set in code. We then post process
  25:.\Generated_Source\PSoC4/Bootloader.c **** * the hex file from the linker and inject their values then. When the hex file
  26:.\Generated_Source\PSoC4/Bootloader.c **** * is loaded onto the device these two variables should have valid values.
  27:.\Generated_Source\PSoC4/Bootloader.c **** * Because the compiler can do optimizations to remove the constant
  28:.\Generated_Source\PSoC4/Bootloader.c **** * accesses, these should not be accessed directly. Instead, the variables
  29:.\Generated_Source\PSoC4/Bootloader.c **** * CyBtldr_ChecksumAccess & CyBtldr_SizeBytesAccess should be used to get the
  30:.\Generated_Source\PSoC4/Bootloader.c **** * proper values at runtime.
  31:.\Generated_Source\PSoC4/Bootloader.c **** *******************************************************************************/
  32:.\Generated_Source\PSoC4/Bootloader.c **** #if defined(__ARMCC_VERSION) || defined (__GNUC__)
  33:.\Generated_Source\PSoC4/Bootloader.c ****     __attribute__((section (".bootloader"), used))
ARM GAS  C:\Users\kbuchi\AppData\Local\Temp\cc4AaGId.s 			page 2


  34:.\Generated_Source\PSoC4/Bootloader.c **** #elif defined (__ICCARM__)
  35:.\Generated_Source\PSoC4/Bootloader.c ****     #pragma location=".bootloader"
  36:.\Generated_Source\PSoC4/Bootloader.c **** #endif  /* defined(__ARMCC_VERSION) || defined (__GNUC__) */
  37:.\Generated_Source\PSoC4/Bootloader.c **** 
  38:.\Generated_Source\PSoC4/Bootloader.c **** #if defined(__ARMCC_VERSION) || defined (__GNUC__) || defined (__C51__)
  39:.\Generated_Source\PSoC4/Bootloader.c ****            const uint8  CYCODE Bootloader_Checksum = 0u;
  40:.\Generated_Source\PSoC4/Bootloader.c **** #elif defined (__ICCARM__)
  41:.\Generated_Source\PSoC4/Bootloader.c ****     __root const uint8  CYCODE Bootloader_Checksum = 0u;
  42:.\Generated_Source\PSoC4/Bootloader.c **** #endif  /* defined(__ARMCC_VERSION) || defined (__GNUC__) || defined (__C51__) */
  43:.\Generated_Source\PSoC4/Bootloader.c **** const uint8  CYCODE *Bootloader_ChecksumAccess  = (const uint8  CYCODE *)(&Bootloader_Checksum);
  44:.\Generated_Source\PSoC4/Bootloader.c **** 
  45:.\Generated_Source\PSoC4/Bootloader.c **** #if defined(__ARMCC_VERSION) || defined (__GNUC__)
  46:.\Generated_Source\PSoC4/Bootloader.c ****     __attribute__((section (".bootloader"), used))
  47:.\Generated_Source\PSoC4/Bootloader.c **** #elif defined (__ICCARM__)
  48:.\Generated_Source\PSoC4/Bootloader.c ****     #pragma location=".bootloader"
  49:.\Generated_Source\PSoC4/Bootloader.c **** #endif  /* defined(__ARMCC_VERSION) || defined (__GNUC__) */
  50:.\Generated_Source\PSoC4/Bootloader.c **** 
  51:.\Generated_Source\PSoC4/Bootloader.c **** const uint32 CYCODE Bootloader_SizeBytes = 0xFFFFFFFFu;
  52:.\Generated_Source\PSoC4/Bootloader.c **** const uint32 CYCODE *Bootloader_SizeBytesAccess = (const uint32 CYCODE *)(&Bootloader_SizeBytes);
  53:.\Generated_Source\PSoC4/Bootloader.c **** 
  54:.\Generated_Source\PSoC4/Bootloader.c **** 
  55:.\Generated_Source\PSoC4/Bootloader.c **** #if(0u != Bootloader_DUAL_APP_BOOTLOADER)
  56:.\Generated_Source\PSoC4/Bootloader.c ****     uint8 Bootloader_activeApp = Bootloader_MD_BTLDB_ACTIVE_NONE;
  57:.\Generated_Source\PSoC4/Bootloader.c **** #else
  58:.\Generated_Source\PSoC4/Bootloader.c ****     #define Bootloader_activeApp      (Bootloader_MD_BTLDB_ACTIVE_0)
  59:.\Generated_Source\PSoC4/Bootloader.c **** #endif  /* (0u != Bootloader_DUAL_APP_BOOTLOADER) */
  60:.\Generated_Source\PSoC4/Bootloader.c **** 
  61:.\Generated_Source\PSoC4/Bootloader.c **** 
  62:.\Generated_Source\PSoC4/Bootloader.c **** /***************************************
  63:.\Generated_Source\PSoC4/Bootloader.c **** *     Function Prototypes
  64:.\Generated_Source\PSoC4/Bootloader.c **** ***************************************/
  65:.\Generated_Source\PSoC4/Bootloader.c **** static cystatus Bootloader_WritePacket(uint8 status, uint8 buffer[], uint16 size) CYSMALL \
  66:.\Generated_Source\PSoC4/Bootloader.c ****                                     ;
  67:.\Generated_Source\PSoC4/Bootloader.c **** 
  68:.\Generated_Source\PSoC4/Bootloader.c **** static uint16   Bootloader_CalcPacketChecksum(const uint8 buffer[], uint16 size) CYSMALL \
  69:.\Generated_Source\PSoC4/Bootloader.c ****                                     ;
  70:.\Generated_Source\PSoC4/Bootloader.c **** 
  71:.\Generated_Source\PSoC4/Bootloader.c **** static void     Bootloader_HostLink(uint8 timeOut) \
  72:.\Generated_Source\PSoC4/Bootloader.c ****                                     ;
  73:.\Generated_Source\PSoC4/Bootloader.c **** 
  74:.\Generated_Source\PSoC4/Bootloader.c **** static void     Bootloader_LaunchApplication(void) CYSMALL \
  75:.\Generated_Source\PSoC4/Bootloader.c ****                                     ;
  76:.\Generated_Source\PSoC4/Bootloader.c **** 
  77:.\Generated_Source\PSoC4/Bootloader.c **** #if(!CY_PSOC3)
  78:.\Generated_Source\PSoC4/Bootloader.c ****     /* Implementation for the PSoC 3 resides in a Bootloader_psoc3.a51 file.  */
  79:.\Generated_Source\PSoC4/Bootloader.c ****     static void     Bootloader_LaunchBootloadable(uint32 appAddr);
  80:.\Generated_Source\PSoC4/Bootloader.c **** #endif  /* (!CY_PSOC3) */
  81:.\Generated_Source\PSoC4/Bootloader.c **** 
  82:.\Generated_Source\PSoC4/Bootloader.c **** 
  83:.\Generated_Source\PSoC4/Bootloader.c **** /*******************************************************************************
  84:.\Generated_Source\PSoC4/Bootloader.c **** * Function Name: Bootloader_CalcPacketChecksum
  85:.\Generated_Source\PSoC4/Bootloader.c **** ********************************************************************************
  86:.\Generated_Source\PSoC4/Bootloader.c **** *
  87:.\Generated_Source\PSoC4/Bootloader.c **** * Summary:
  88:.\Generated_Source\PSoC4/Bootloader.c **** *  This computes the 16 bit checksum for the provided number of bytes contained
  89:.\Generated_Source\PSoC4/Bootloader.c **** *  in the provided buffer
  90:.\Generated_Source\PSoC4/Bootloader.c **** *
ARM GAS  C:\Users\kbuchi\AppData\Local\Temp\cc4AaGId.s 			page 3


  91:.\Generated_Source\PSoC4/Bootloader.c **** * Parameters:
  92:.\Generated_Source\PSoC4/Bootloader.c **** *  buffer:
  93:.\Generated_Source\PSoC4/Bootloader.c **** *     The buffer containing the data to compute the checksum for
  94:.\Generated_Source\PSoC4/Bootloader.c **** *  size:
  95:.\Generated_Source\PSoC4/Bootloader.c **** *     The number of bytes in the buffer to compute the checksum for
  96:.\Generated_Source\PSoC4/Bootloader.c **** *
  97:.\Generated_Source\PSoC4/Bootloader.c **** * Returns:
  98:.\Generated_Source\PSoC4/Bootloader.c **** *  16 bit checksum for the provided data
  99:.\Generated_Source\PSoC4/Bootloader.c **** *
 100:.\Generated_Source\PSoC4/Bootloader.c **** *******************************************************************************/
 101:.\Generated_Source\PSoC4/Bootloader.c **** static uint16 Bootloader_CalcPacketChecksum(const uint8 buffer[], uint16 size) \
 102:.\Generated_Source\PSoC4/Bootloader.c ****                     CYSMALL 
 103:.\Generated_Source\PSoC4/Bootloader.c **** {
 104:.\Generated_Source\PSoC4/Bootloader.c ****     #if(0u != Bootloader_PACKET_CHECKSUM_CRC)
 105:.\Generated_Source\PSoC4/Bootloader.c **** 
 106:.\Generated_Source\PSoC4/Bootloader.c ****         uint16 CYDATA crc = Bootloader_CRC_CCITT_INITIAL_VALUE;
 107:.\Generated_Source\PSoC4/Bootloader.c ****         uint16 CYDATA tmp;
 108:.\Generated_Source\PSoC4/Bootloader.c ****         uint8  CYDATA i;
 109:.\Generated_Source\PSoC4/Bootloader.c ****         uint16 CYDATA tmpIndex = size;
 110:.\Generated_Source\PSoC4/Bootloader.c **** 
 111:.\Generated_Source\PSoC4/Bootloader.c ****         if(0u == size)
 112:.\Generated_Source\PSoC4/Bootloader.c ****         {
 113:.\Generated_Source\PSoC4/Bootloader.c ****             crc = ~crc;
 114:.\Generated_Source\PSoC4/Bootloader.c ****         }
 115:.\Generated_Source\PSoC4/Bootloader.c ****         else
 116:.\Generated_Source\PSoC4/Bootloader.c ****         {
 117:.\Generated_Source\PSoC4/Bootloader.c ****             do
 118:.\Generated_Source\PSoC4/Bootloader.c ****             {
 119:.\Generated_Source\PSoC4/Bootloader.c ****                 tmp = buffer[tmpIndex - size];
 120:.\Generated_Source\PSoC4/Bootloader.c **** 
 121:.\Generated_Source\PSoC4/Bootloader.c ****                 for (i = 0u; i < 8u; i++)
 122:.\Generated_Source\PSoC4/Bootloader.c ****                 {
 123:.\Generated_Source\PSoC4/Bootloader.c ****                     if (0u != ((crc & 0x0001u) ^ (tmp & 0x0001u)))
 124:.\Generated_Source\PSoC4/Bootloader.c ****                     {
 125:.\Generated_Source\PSoC4/Bootloader.c ****                         crc = (crc >> 1u) ^ Bootloader_CRC_CCITT_POLYNOMIAL;
 126:.\Generated_Source\PSoC4/Bootloader.c ****                     }
 127:.\Generated_Source\PSoC4/Bootloader.c ****                     else
 128:.\Generated_Source\PSoC4/Bootloader.c ****                     {
 129:.\Generated_Source\PSoC4/Bootloader.c ****                         crc >>= 1u;
 130:.\Generated_Source\PSoC4/Bootloader.c ****                     }
 131:.\Generated_Source\PSoC4/Bootloader.c **** 
 132:.\Generated_Source\PSoC4/Bootloader.c ****                     tmp >>= 1u;
 133:.\Generated_Source\PSoC4/Bootloader.c ****                 }
 134:.\Generated_Source\PSoC4/Bootloader.c **** 
 135:.\Generated_Source\PSoC4/Bootloader.c ****                 size--;
 136:.\Generated_Source\PSoC4/Bootloader.c ****             }
 137:.\Generated_Source\PSoC4/Bootloader.c ****             while(0u != size);
 138:.\Generated_Source\PSoC4/Bootloader.c **** 
 139:.\Generated_Source\PSoC4/Bootloader.c ****             crc = ~crc;
 140:.\Generated_Source\PSoC4/Bootloader.c ****             tmp = crc;
 141:.\Generated_Source\PSoC4/Bootloader.c ****             crc = ( uint16 )(crc << 8u) | (tmp >> 8u);
 142:.\Generated_Source\PSoC4/Bootloader.c ****         }
 143:.\Generated_Source\PSoC4/Bootloader.c **** 
 144:.\Generated_Source\PSoC4/Bootloader.c ****         return(crc);
 145:.\Generated_Source\PSoC4/Bootloader.c **** 
 146:.\Generated_Source\PSoC4/Bootloader.c ****     #else
 147:.\Generated_Source\PSoC4/Bootloader.c **** 
ARM GAS  C:\Users\kbuchi\AppData\Local\Temp\cc4AaGId.s 			page 4


 148:.\Generated_Source\PSoC4/Bootloader.c ****         uint16 CYDATA sum = 0u;
 149:.\Generated_Source\PSoC4/Bootloader.c **** 
 150:.\Generated_Source\PSoC4/Bootloader.c ****         while (size > 0u)
 151:.\Generated_Source\PSoC4/Bootloader.c ****         {
 152:.\Generated_Source\PSoC4/Bootloader.c ****             sum += buffer[size - 1u];
 153:.\Generated_Source\PSoC4/Bootloader.c ****             size--;
 154:.\Generated_Source\PSoC4/Bootloader.c ****         }
 155:.\Generated_Source\PSoC4/Bootloader.c **** 
 156:.\Generated_Source\PSoC4/Bootloader.c ****         return(( uint16 )1u + ( uint16 )(~sum));
 157:.\Generated_Source\PSoC4/Bootloader.c **** 
 158:.\Generated_Source\PSoC4/Bootloader.c ****     #endif /* (0u != Bootloader_PACKET_CHECKSUM_CRC) */
 159:.\Generated_Source\PSoC4/Bootloader.c **** }
 160:.\Generated_Source\PSoC4/Bootloader.c **** 
 161:.\Generated_Source\PSoC4/Bootloader.c **** 
 162:.\Generated_Source\PSoC4/Bootloader.c **** /*******************************************************************************
 163:.\Generated_Source\PSoC4/Bootloader.c **** * Function Name: Bootloader_Calc8BitSum
 164:.\Generated_Source\PSoC4/Bootloader.c **** ********************************************************************************
 165:.\Generated_Source\PSoC4/Bootloader.c **** *
 166:.\Generated_Source\PSoC4/Bootloader.c **** * Summary:
 167:.\Generated_Source\PSoC4/Bootloader.c **** *  This computes the 8 bit sum for the provided number of bytes contained in
 168:.\Generated_Source\PSoC4/Bootloader.c **** *  FLASH (if baseAddr equals CY_FLASH_BASE) or EEPROM (if baseAddr equals
 169:.\Generated_Source\PSoC4/Bootloader.c **** *  CY_EEPROM_BASE).
 170:.\Generated_Source\PSoC4/Bootloader.c **** *
 171:.\Generated_Source\PSoC4/Bootloader.c **** * Parameters:
 172:.\Generated_Source\PSoC4/Bootloader.c **** * baseAddr:
 173:.\Generated_Source\PSoC4/Bootloader.c **** *   CY_FLASH_BASE
 174:.\Generated_Source\PSoC4/Bootloader.c **** *   CY_EEPROM_BASE - applicable only for PSoC 3 / PSoC 5LP devices.
 175:.\Generated_Source\PSoC4/Bootloader.c **** *
 176:.\Generated_Source\PSoC4/Bootloader.c **** *  start:
 177:.\Generated_Source\PSoC4/Bootloader.c **** *     The starting address to start summing data for
 178:.\Generated_Source\PSoC4/Bootloader.c **** *  size:
 179:.\Generated_Source\PSoC4/Bootloader.c **** *     The number of bytes to read and compute the sum for
 180:.\Generated_Source\PSoC4/Bootloader.c **** *
 181:.\Generated_Source\PSoC4/Bootloader.c **** * Returns:
 182:.\Generated_Source\PSoC4/Bootloader.c **** *   8 bit sum for the provided data
 183:.\Generated_Source\PSoC4/Bootloader.c **** *
 184:.\Generated_Source\PSoC4/Bootloader.c **** *******************************************************************************/
 185:.\Generated_Source\PSoC4/Bootloader.c **** uint8 Bootloader_Calc8BitSum(uint32 baseAddr, uint32 start, uint32 size) \
 186:.\Generated_Source\PSoC4/Bootloader.c ****                 CYSMALL 
 187:.\Generated_Source\PSoC4/Bootloader.c **** {
 188:.\Generated_Source\PSoC4/Bootloader.c ****     uint8 CYDATA sum = 0u;
 189:.\Generated_Source\PSoC4/Bootloader.c **** 
 190:.\Generated_Source\PSoC4/Bootloader.c ****     #if(!CY_PSOC4)
 191:.\Generated_Source\PSoC4/Bootloader.c ****         CYASSERT((baseAddr == CY_EEPROM_BASE) || (baseAddr == CY_FLASH_BASE));
 192:.\Generated_Source\PSoC4/Bootloader.c ****     #else
 193:.\Generated_Source\PSoC4/Bootloader.c ****         CYASSERT(baseAddr == CY_FLASH_BASE);
 194:.\Generated_Source\PSoC4/Bootloader.c ****     #endif  /* (!CY_PSOC4) */
 195:.\Generated_Source\PSoC4/Bootloader.c **** 
 196:.\Generated_Source\PSoC4/Bootloader.c ****     while (size > 0u)
 197:.\Generated_Source\PSoC4/Bootloader.c ****     {
 198:.\Generated_Source\PSoC4/Bootloader.c ****         size--;
 199:.\Generated_Source\PSoC4/Bootloader.c ****         sum += (*((uint8  *)(baseAddr + start + size)));
 200:.\Generated_Source\PSoC4/Bootloader.c ****     }
 201:.\Generated_Source\PSoC4/Bootloader.c **** 
 202:.\Generated_Source\PSoC4/Bootloader.c ****     return(sum);
 203:.\Generated_Source\PSoC4/Bootloader.c **** }
 204:.\Generated_Source\PSoC4/Bootloader.c **** 
ARM GAS  C:\Users\kbuchi\AppData\Local\Temp\cc4AaGId.s 			page 5


 205:.\Generated_Source\PSoC4/Bootloader.c **** 
 206:.\Generated_Source\PSoC4/Bootloader.c **** /*******************************************************************************
 207:.\Generated_Source\PSoC4/Bootloader.c **** * Function Name: Bootloader_Start
 208:.\Generated_Source\PSoC4/Bootloader.c **** ********************************************************************************
 209:.\Generated_Source\PSoC4/Bootloader.c **** * Summary:
 210:.\Generated_Source\PSoC4/Bootloader.c **** *  This function is called in order to execute the following algorithm:
 211:.\Generated_Source\PSoC4/Bootloader.c **** *
 212:.\Generated_Source\PSoC4/Bootloader.c **** *  - Identify the active bootloadable application (applicable only to
 213:.\Generated_Source\PSoC4/Bootloader.c **** *    the Multi-application bootloader)
 214:.\Generated_Source\PSoC4/Bootloader.c **** *
 215:.\Generated_Source\PSoC4/Bootloader.c **** *  - Validate the bootloader application (design-time configurable, Bootloader
 216:.\Generated_Source\PSoC4/Bootloader.c **** *    application validation option of the component customizer)
 217:.\Generated_Source\PSoC4/Bootloader.c **** *
 218:.\Generated_Source\PSoC4/Bootloader.c **** *  - Validate the active bootloadable application. If active bootloadable
 219:.\Generated_Source\PSoC4/Bootloader.c **** *    application is not valid, and the other bootloadable application (inactive)
 220:.\Generated_Source\PSoC4/Bootloader.c **** *    is valid, the last one is started.
 221:.\Generated_Source\PSoC4/Bootloader.c **** *
 222:.\Generated_Source\PSoC4/Bootloader.c **** *  - Run a communication subroutine (design-time configurable, Wait for command
 223:.\Generated_Source\PSoC4/Bootloader.c **** *    option of the component customizer)
 224:.\Generated_Source\PSoC4/Bootloader.c **** *
 225:.\Generated_Source\PSoC4/Bootloader.c **** *  - Schedule the bootloadable and reset the device
 226:.\Generated_Source\PSoC4/Bootloader.c **** *
 227:.\Generated_Source\PSoC4/Bootloader.c **** * Parameters:
 228:.\Generated_Source\PSoC4/Bootloader.c **** *  None
 229:.\Generated_Source\PSoC4/Bootloader.c **** *
 230:.\Generated_Source\PSoC4/Bootloader.c **** * Return:
 231:.\Generated_Source\PSoC4/Bootloader.c **** *  This method will never return. It will either load a new application and
 232:.\Generated_Source\PSoC4/Bootloader.c **** *  reset the device or jump directly to the existing application. The CPU is
 233:.\Generated_Source\PSoC4/Bootloader.c **** *  halted, if validation failed when "Bootloader application validation" option
 234:.\Generated_Source\PSoC4/Bootloader.c **** *  is enabled.
 235:.\Generated_Source\PSoC4/Bootloader.c **** *  PSoC 3/PSoC 5: The CPU is halted if Flash initialization fails.
 236:.\Generated_Source\PSoC4/Bootloader.c **** *
 237:.\Generated_Source\PSoC4/Bootloader.c **** * Side Effects:
 238:.\Generated_Source\PSoC4/Bootloader.c **** *  If Bootloader application validation option is enabled and this method
 239:.\Generated_Source\PSoC4/Bootloader.c **** *  determines that the bootloader application itself is corrupt, this method
 240:.\Generated_Source\PSoC4/Bootloader.c **** *  will not return, instead it will simply hang the application.
 241:.\Generated_Source\PSoC4/Bootloader.c **** *
 242:.\Generated_Source\PSoC4/Bootloader.c **** *******************************************************************************/
 243:.\Generated_Source\PSoC4/Bootloader.c **** void Bootloader_Start(void) CYSMALL 
 244:.\Generated_Source\PSoC4/Bootloader.c **** {
 245:.\Generated_Source\PSoC4/Bootloader.c ****     #if(0u != Bootloader_BOOTLOADER_APP_VALIDATION)
 246:.\Generated_Source\PSoC4/Bootloader.c ****         uint8 CYDATA calcedChecksum;
 247:.\Generated_Source\PSoC4/Bootloader.c ****     #endif    /* (0u != Bootloader_BOOTLOADER_APP_VALIDATION) */
 248:.\Generated_Source\PSoC4/Bootloader.c **** 
 249:.\Generated_Source\PSoC4/Bootloader.c ****     #if(!CY_PSOC4)
 250:.\Generated_Source\PSoC4/Bootloader.c ****         #if(0u != Bootloader_FAST_APP_VALIDATION)
 251:.\Generated_Source\PSoC4/Bootloader.c ****             #if !defined(CY_BOOT_VERSION)
 252:.\Generated_Source\PSoC4/Bootloader.c **** 
 253:.\Generated_Source\PSoC4/Bootloader.c ****                 /* Not required starting from cy_boot 4.20 */
 254:.\Generated_Source\PSoC4/Bootloader.c ****                 uint8 CYXDATA Bootloader_flashBuffer[Bootloader_FROW_SIZE];
 255:.\Generated_Source\PSoC4/Bootloader.c **** 
 256:.\Generated_Source\PSoC4/Bootloader.c ****             #endif /* !defined(CY_BOOT_VERSION) */
 257:.\Generated_Source\PSoC4/Bootloader.c ****         #endif  /* (0u != Bootloader_FAST_APP_VALIDATION) */
 258:.\Generated_Source\PSoC4/Bootloader.c ****     #endif  /* (!CY_PSOC4) */
 259:.\Generated_Source\PSoC4/Bootloader.c **** 
 260:.\Generated_Source\PSoC4/Bootloader.c ****     cystatus validApp  = CYRET_BAD_DATA;
 261:.\Generated_Source\PSoC4/Bootloader.c **** 
ARM GAS  C:\Users\kbuchi\AppData\Local\Temp\cc4AaGId.s 			page 6


 262:.\Generated_Source\PSoC4/Bootloader.c **** 
 263:.\Generated_Source\PSoC4/Bootloader.c ****     /* Identify active bootloadable application */
 264:.\Generated_Source\PSoC4/Bootloader.c ****     #if(0u != Bootloader_DUAL_APP_BOOTLOADER)
 265:.\Generated_Source\PSoC4/Bootloader.c **** 
 266:.\Generated_Source\PSoC4/Bootloader.c ****         /* Assumes no active bootloadable application. Bootloader is active. */
 267:.\Generated_Source\PSoC4/Bootloader.c ****         Bootloader_activeApp = Bootloader_MD_BTLDB_ACTIVE_NONE;
 268:.\Generated_Source\PSoC4/Bootloader.c **** 
 269:.\Generated_Source\PSoC4/Bootloader.c ****         /* Bootloadable # A is active */
 270:.\Generated_Source\PSoC4/Bootloader.c ****         if(Bootloader_GetMetadata(Bootloader_GET_BTLDB_ACTIVE, 0u) == Bootloader_MD_BTLDB_IS_ACTIVE
 271:.\Generated_Source\PSoC4/Bootloader.c ****         {
 272:.\Generated_Source\PSoC4/Bootloader.c ****             /*******************************************************************
 273:.\Generated_Source\PSoC4/Bootloader.c ****             * -----------------------------------------------------------
 274:.\Generated_Source\PSoC4/Bootloader.c ****             * |      | Bootloadable A | Bootloadable B |                |
 275:.\Generated_Source\PSoC4/Bootloader.c ****             * | Case |---------------------------------|     Action     |
 276:.\Generated_Source\PSoC4/Bootloader.c ****             * |      | Active | Valid | Active | Valid |                |
 277:.\Generated_Source\PSoC4/Bootloader.c ****             * |------|--------------------------------------------------|
 278:.\Generated_Source\PSoC4/Bootloader.c ****             * |  9   |    1   |   0   |   0    |   0   | Bootloader     |
 279:.\Generated_Source\PSoC4/Bootloader.c ****             * |  10  |    1   |   0   |   0    |   1   | Bootloadable B |
 280:.\Generated_Source\PSoC4/Bootloader.c ****             * |  11  |    1   |   0   |   1    |   0   | Bootloader     |
 281:.\Generated_Source\PSoC4/Bootloader.c ****             * |  12  |    1   |   0   |   1    |   1   | Bootloadable B |
 282:.\Generated_Source\PSoC4/Bootloader.c ****             * |  13  |    1   |   1   |   0    |   0   | Bootloadable A |
 283:.\Generated_Source\PSoC4/Bootloader.c ****             * |  14  |    1   |   1   |   0    |   1   | Bootloadable A |
 284:.\Generated_Source\PSoC4/Bootloader.c ****             * |  15  |    1   |   1   |   1    |   0   | Bootloadable A |
 285:.\Generated_Source\PSoC4/Bootloader.c ****             * |  16  |    1   |   1   |   1    |   1   | Bootloadable A |
 286:.\Generated_Source\PSoC4/Bootloader.c ****             * -----------------------------------------------------------
 287:.\Generated_Source\PSoC4/Bootloader.c ****             *******************************************************************/
 288:.\Generated_Source\PSoC4/Bootloader.c ****             if (CYRET_SUCCESS == Bootloader_ValidateBootloadable(Bootloader_MD_BTLDB_ACTIVE_0))
 289:.\Generated_Source\PSoC4/Bootloader.c ****             {
 290:.\Generated_Source\PSoC4/Bootloader.c ****                 /* Cases # 13,  14, 15, and 16 */
 291:.\Generated_Source\PSoC4/Bootloader.c ****                 Bootloader_activeApp = Bootloader_MD_BTLDB_ACTIVE_0;
 292:.\Generated_Source\PSoC4/Bootloader.c ****                 validApp = CYRET_SUCCESS;
 293:.\Generated_Source\PSoC4/Bootloader.c ****             }
 294:.\Generated_Source\PSoC4/Bootloader.c ****             else
 295:.\Generated_Source\PSoC4/Bootloader.c ****             {
 296:.\Generated_Source\PSoC4/Bootloader.c ****                 if (CYRET_SUCCESS == Bootloader_ValidateBootloadable(Bootloader_MD_BTLDB_ACTIVE_1))
 297:.\Generated_Source\PSoC4/Bootloader.c ****                 {
 298:.\Generated_Source\PSoC4/Bootloader.c ****                     /* Cases # 10 and 12 */
 299:.\Generated_Source\PSoC4/Bootloader.c ****                     Bootloader_activeApp = Bootloader_MD_BTLDB_ACTIVE_1;
 300:.\Generated_Source\PSoC4/Bootloader.c ****                     validApp = CYRET_SUCCESS;
 301:.\Generated_Source\PSoC4/Bootloader.c ****                 }
 302:.\Generated_Source\PSoC4/Bootloader.c ****             }
 303:.\Generated_Source\PSoC4/Bootloader.c ****         }
 304:.\Generated_Source\PSoC4/Bootloader.c **** 
 305:.\Generated_Source\PSoC4/Bootloader.c ****         /*  Active bootloadable application is not identified */
 306:.\Generated_Source\PSoC4/Bootloader.c ****         if(Bootloader_activeApp == Bootloader_MD_BTLDB_ACTIVE_NONE)
 307:.\Generated_Source\PSoC4/Bootloader.c ****         {
 308:.\Generated_Source\PSoC4/Bootloader.c ****             /*******************************************************************
 309:.\Generated_Source\PSoC4/Bootloader.c ****             * -----------------------------------------------------------
 310:.\Generated_Source\PSoC4/Bootloader.c ****             * |      | Bootloadable A | Bootloadable B |                |
 311:.\Generated_Source\PSoC4/Bootloader.c ****             * | Case |---------------------------------|     Action     |
 312:.\Generated_Source\PSoC4/Bootloader.c ****             * |      | Active | Valid | Active | Valid |                |
 313:.\Generated_Source\PSoC4/Bootloader.c ****             * |------|--------------------------------------------------|
 314:.\Generated_Source\PSoC4/Bootloader.c ****             * |  1   |    0   |   0   |   0    |   0   | Bootloader     |
 315:.\Generated_Source\PSoC4/Bootloader.c ****             * |  2   |    0   |   0   |   0    |   1   | Bootloader     |
 316:.\Generated_Source\PSoC4/Bootloader.c ****             * |  3   |    0   |   0   |   1    |   0   | Bootloader     |
 317:.\Generated_Source\PSoC4/Bootloader.c ****             * |  4   |    0   |   0   |   1    |   1   | Bootloadable B |
 318:.\Generated_Source\PSoC4/Bootloader.c ****             * |  5   |    0   |   1   |   0    |   0   | Bootloader     |
ARM GAS  C:\Users\kbuchi\AppData\Local\Temp\cc4AaGId.s 			page 7


 319:.\Generated_Source\PSoC4/Bootloader.c ****             * |  6   |    0   |   1   |   0    |   1   | Bootloader     |
 320:.\Generated_Source\PSoC4/Bootloader.c ****             * |  7   |    0   |   1   |   1    |   0   | Bootloadable A |
 321:.\Generated_Source\PSoC4/Bootloader.c ****             * |  8   |    0   |   1   |   1    |   1   | Bootloadable B |
 322:.\Generated_Source\PSoC4/Bootloader.c ****             * -----------------------------------------------------------
 323:.\Generated_Source\PSoC4/Bootloader.c ****             *******************************************************************/
 324:.\Generated_Source\PSoC4/Bootloader.c ****             if (Bootloader_GetMetadata(Bootloader_GET_BTLDB_ACTIVE, 1u) ==
 325:.\Generated_Source\PSoC4/Bootloader.c ****                     Bootloader_MD_BTLDB_IS_ACTIVE)
 326:.\Generated_Source\PSoC4/Bootloader.c ****             {
 327:.\Generated_Source\PSoC4/Bootloader.c ****                 /* Cases # 3, 4, 7, and 8 */
 328:.\Generated_Source\PSoC4/Bootloader.c ****                 if (CYRET_SUCCESS == Bootloader_ValidateBootloadable(Bootloader_MD_BTLDB_ACTIVE_1))
 329:.\Generated_Source\PSoC4/Bootloader.c ****                 {
 330:.\Generated_Source\PSoC4/Bootloader.c ****                     /* Cases # 4 and 8 */
 331:.\Generated_Source\PSoC4/Bootloader.c ****                     Bootloader_activeApp = Bootloader_MD_BTLDB_ACTIVE_1;
 332:.\Generated_Source\PSoC4/Bootloader.c ****                     validApp = CYRET_SUCCESS;
 333:.\Generated_Source\PSoC4/Bootloader.c ****                 }
 334:.\Generated_Source\PSoC4/Bootloader.c ****                 else
 335:.\Generated_Source\PSoC4/Bootloader.c ****                 {
 336:.\Generated_Source\PSoC4/Bootloader.c ****                     if (CYRET_SUCCESS == Bootloader_ValidateBootloadable(Bootloader_MD_BTLDB_ACTIVE
 337:.\Generated_Source\PSoC4/Bootloader.c ****                     {
 338:.\Generated_Source\PSoC4/Bootloader.c ****                         /* Cases # 7 */
 339:.\Generated_Source\PSoC4/Bootloader.c ****                         Bootloader_activeApp = Bootloader_MD_BTLDB_ACTIVE_0;
 340:.\Generated_Source\PSoC4/Bootloader.c ****                         validApp = CYRET_SUCCESS;
 341:.\Generated_Source\PSoC4/Bootloader.c ****                     }
 342:.\Generated_Source\PSoC4/Bootloader.c ****                 }
 343:.\Generated_Source\PSoC4/Bootloader.c ****             }
 344:.\Generated_Source\PSoC4/Bootloader.c ****         }
 345:.\Generated_Source\PSoC4/Bootloader.c ****     #else
 346:.\Generated_Source\PSoC4/Bootloader.c ****         if (CYRET_SUCCESS == Bootloader_ValidateBootloadable(Bootloader_MD_BTLDB_ACTIVE_0))
 347:.\Generated_Source\PSoC4/Bootloader.c ****         {
 348:.\Generated_Source\PSoC4/Bootloader.c ****             validApp = CYRET_SUCCESS;
 349:.\Generated_Source\PSoC4/Bootloader.c ****         }
 350:.\Generated_Source\PSoC4/Bootloader.c ****     #endif  /* (0u != Bootloader_DUAL_APP_BOOTLOADER) */
 351:.\Generated_Source\PSoC4/Bootloader.c **** 
 352:.\Generated_Source\PSoC4/Bootloader.c **** 
 353:.\Generated_Source\PSoC4/Bootloader.c ****     /* Initialize Flash subsystem for non-PSoC 4 devices */
 354:.\Generated_Source\PSoC4/Bootloader.c ****     #if(!CY_PSOC4)
 355:.\Generated_Source\PSoC4/Bootloader.c ****         #if(0u != Bootloader_FAST_APP_VALIDATION)
 356:.\Generated_Source\PSoC4/Bootloader.c **** 
 357:.\Generated_Source\PSoC4/Bootloader.c ****             if (CYRET_SUCCESS != CySetTemp())
 358:.\Generated_Source\PSoC4/Bootloader.c ****             {
 359:.\Generated_Source\PSoC4/Bootloader.c ****                 CyHalt(0x00u);
 360:.\Generated_Source\PSoC4/Bootloader.c ****             }
 361:.\Generated_Source\PSoC4/Bootloader.c **** 
 362:.\Generated_Source\PSoC4/Bootloader.c ****             #if !defined(CY_BOOT_VERSION)
 363:.\Generated_Source\PSoC4/Bootloader.c **** 
 364:.\Generated_Source\PSoC4/Bootloader.c ****                 /* Not required with cy_boot 4.20 */
 365:.\Generated_Source\PSoC4/Bootloader.c ****                 if (CYRET_SUCCESS != CySetFlashEEBuffer(Bootloader_flashBuffer))
 366:.\Generated_Source\PSoC4/Bootloader.c ****                 {
 367:.\Generated_Source\PSoC4/Bootloader.c ****                     CyHalt(0x00u);
 368:.\Generated_Source\PSoC4/Bootloader.c ****                 }
 369:.\Generated_Source\PSoC4/Bootloader.c **** 
 370:.\Generated_Source\PSoC4/Bootloader.c ****             #endif /* !defined(CY_BOOT_VERSION) */
 371:.\Generated_Source\PSoC4/Bootloader.c ****         #endif  /* (0u != Bootloader_FAST_APP_VALIDATION) */
 372:.\Generated_Source\PSoC4/Bootloader.c ****     #endif  /* (CY_PSOC4) */
 373:.\Generated_Source\PSoC4/Bootloader.c **** 
 374:.\Generated_Source\PSoC4/Bootloader.c **** 
 375:.\Generated_Source\PSoC4/Bootloader.c ****     /***********************************************************************
ARM GAS  C:\Users\kbuchi\AppData\Local\Temp\cc4AaGId.s 			page 8


 376:.\Generated_Source\PSoC4/Bootloader.c ****     * Bootloader Application Validation
 377:.\Generated_Source\PSoC4/Bootloader.c ****     *
 378:.\Generated_Source\PSoC4/Bootloader.c ****     * Halt the device if:
 379:.\Generated_Source\PSoC4/Bootloader.c ****     *  - A calculated checksum does not match the one stored in the metadata
 380:.\Generated_Source\PSoC4/Bootloader.c ****     *     section.
 381:.\Generated_Source\PSoC4/Bootloader.c ****     *  - There is an invalid pointer to the place where the bootloader
 382:.\Generated_Source\PSoC4/Bootloader.c ****     *    application ends.
 383:.\Generated_Source\PSoC4/Bootloader.c ****     *  - Flash subsystem was not initialized correctly
 384:.\Generated_Source\PSoC4/Bootloader.c ****     ***********************************************************************/
 385:.\Generated_Source\PSoC4/Bootloader.c ****     #if(0u != Bootloader_BOOTLOADER_APP_VALIDATION)
 386:.\Generated_Source\PSoC4/Bootloader.c **** 
 387:.\Generated_Source\PSoC4/Bootloader.c ****         /* Calculate Bootloader application checksum */
 388:.\Generated_Source\PSoC4/Bootloader.c ****         calcedChecksum = Bootloader_Calc8BitSum(CY_FLASH_BASE,
 389:.\Generated_Source\PSoC4/Bootloader.c ****                 Bootloader_MD_BTLDR_ADDR_PTR,
 390:.\Generated_Source\PSoC4/Bootloader.c ****                 *Bootloader_SizeBytesAccess - Bootloader_MD_BTLDR_ADDR_PTR);
 391:.\Generated_Source\PSoC4/Bootloader.c **** 
 392:.\Generated_Source\PSoC4/Bootloader.c ****         /* we included checksum, so remove it */
 393:.\Generated_Source\PSoC4/Bootloader.c ****         calcedChecksum -= *Bootloader_ChecksumAccess;
 394:.\Generated_Source\PSoC4/Bootloader.c ****         calcedChecksum = ( uint8 )1u + ( uint8 )(~calcedChecksum);
 395:.\Generated_Source\PSoC4/Bootloader.c **** 
 396:.\Generated_Source\PSoC4/Bootloader.c ****         /* Checksum and pointer to bootloader verification */
 397:.\Generated_Source\PSoC4/Bootloader.c ****         if((calcedChecksum != *Bootloader_ChecksumAccess) ||
 398:.\Generated_Source\PSoC4/Bootloader.c ****            (0u == *Bootloader_SizeBytesAccess))
 399:.\Generated_Source\PSoC4/Bootloader.c ****         {
 400:.\Generated_Source\PSoC4/Bootloader.c ****             CyHalt(0x00u);
 401:.\Generated_Source\PSoC4/Bootloader.c ****         }
 402:.\Generated_Source\PSoC4/Bootloader.c **** 
 403:.\Generated_Source\PSoC4/Bootloader.c ****     #endif  /* (0u != Bootloader_BOOTLOADER_APP_VALIDATION) */
 404:.\Generated_Source\PSoC4/Bootloader.c **** 
 405:.\Generated_Source\PSoC4/Bootloader.c **** 
 406:.\Generated_Source\PSoC4/Bootloader.c ****     /***********************************************************************
 407:.\Generated_Source\PSoC4/Bootloader.c ****     * If the active bootloadable application is invalid or a bootloader
 408:.\Generated_Source\PSoC4/Bootloader.c ****     * application is scheduled - do the following:
 409:.\Generated_Source\PSoC4/Bootloader.c ****     *  - schedule the bootloader application to be run after software reset
 410:.\Generated_Source\PSoC4/Bootloader.c ****     *  - Go to the communication subroutine. The HostLink() will wait for
 411:.\Generated_Source\PSoC4/Bootloader.c ****     *    the commands forever.
 412:.\Generated_Source\PSoC4/Bootloader.c ****     ***********************************************************************/
 413:.\Generated_Source\PSoC4/Bootloader.c ****     if ((Bootloader_GET_RUN_TYPE == Bootloader_START_BTLDR) ||
 414:.\Generated_Source\PSoC4/Bootloader.c ****         (CYRET_SUCCESS != validApp))
 415:.\Generated_Source\PSoC4/Bootloader.c ****     {
 416:.\Generated_Source\PSoC4/Bootloader.c ****         Bootloader_SET_RUN_TYPE(0u);
 417:.\Generated_Source\PSoC4/Bootloader.c **** 
 418:.\Generated_Source\PSoC4/Bootloader.c ****         Bootloader_HostLink(Bootloader_WAIT_FOR_COMMAND_FOREVER);
 419:.\Generated_Source\PSoC4/Bootloader.c ****     }
 420:.\Generated_Source\PSoC4/Bootloader.c **** 
 421:.\Generated_Source\PSoC4/Bootloader.c **** 
 422:.\Generated_Source\PSoC4/Bootloader.c ****     /* Go to communication subroutine. Will wait for commands for specifed time */
 423:.\Generated_Source\PSoC4/Bootloader.c ****     #if(0u != Bootloader_WAIT_FOR_COMMAND)
 424:.\Generated_Source\PSoC4/Bootloader.c **** 
 425:.\Generated_Source\PSoC4/Bootloader.c ****         /* Timeout is in 100s of milliseconds */
 426:.\Generated_Source\PSoC4/Bootloader.c ****         Bootloader_HostLink(Bootloader_WAIT_FOR_COMMAND_TIME);
 427:.\Generated_Source\PSoC4/Bootloader.c **** 
 428:.\Generated_Source\PSoC4/Bootloader.c ****     #endif  /* (0u != Bootloader_WAIT_FOR_COMMAND) */
 429:.\Generated_Source\PSoC4/Bootloader.c **** 
 430:.\Generated_Source\PSoC4/Bootloader.c **** 
 431:.\Generated_Source\PSoC4/Bootloader.c ****     /* Schedule bootloadable application and perform software reset */
 432:.\Generated_Source\PSoC4/Bootloader.c ****     Bootloader_LaunchApplication();
ARM GAS  C:\Users\kbuchi\AppData\Local\Temp\cc4AaGId.s 			page 9


 433:.\Generated_Source\PSoC4/Bootloader.c **** }
 434:.\Generated_Source\PSoC4/Bootloader.c **** 
 435:.\Generated_Source\PSoC4/Bootloader.c **** 
 436:.\Generated_Source\PSoC4/Bootloader.c **** /*******************************************************************************
 437:.\Generated_Source\PSoC4/Bootloader.c **** * Function Name: Bootloader_LaunchApplication
 438:.\Generated_Source\PSoC4/Bootloader.c **** ********************************************************************************
 439:.\Generated_Source\PSoC4/Bootloader.c **** *
 440:.\Generated_Source\PSoC4/Bootloader.c **** * Summary:
 441:.\Generated_Source\PSoC4/Bootloader.c **** *  Schedules bootloadable application and resets device
 442:.\Generated_Source\PSoC4/Bootloader.c **** *
 443:.\Generated_Source\PSoC4/Bootloader.c **** * Parameters:
 444:.\Generated_Source\PSoC4/Bootloader.c **** *  None
 445:.\Generated_Source\PSoC4/Bootloader.c **** *
 446:.\Generated_Source\PSoC4/Bootloader.c **** * Returns:
 447:.\Generated_Source\PSoC4/Bootloader.c **** *  This method will never return.
 448:.\Generated_Source\PSoC4/Bootloader.c **** *
 449:.\Generated_Source\PSoC4/Bootloader.c **** *******************************************************************************/
 450:.\Generated_Source\PSoC4/Bootloader.c **** static void Bootloader_LaunchApplication(void) CYSMALL 
 451:.\Generated_Source\PSoC4/Bootloader.c **** {
 452:.\Generated_Source\PSoC4/Bootloader.c ****     /* Schedule Bootloadable to start after reset */
 453:.\Generated_Source\PSoC4/Bootloader.c ****     Bootloader_SET_RUN_TYPE(Bootloader_START_APP);
 454:.\Generated_Source\PSoC4/Bootloader.c **** 
 455:.\Generated_Source\PSoC4/Bootloader.c ****     CySoftwareReset();
 456:.\Generated_Source\PSoC4/Bootloader.c **** }
 457:.\Generated_Source\PSoC4/Bootloader.c **** 
 458:.\Generated_Source\PSoC4/Bootloader.c **** 
 459:.\Generated_Source\PSoC4/Bootloader.c **** /*******************************************************************************
 460:.\Generated_Source\PSoC4/Bootloader.c **** * Function Name: Bootloader_Exit
 461:.\Generated_Source\PSoC4/Bootloader.c **** ********************************************************************************
 462:.\Generated_Source\PSoC4/Bootloader.c **** *
 463:.\Generated_Source\PSoC4/Bootloader.c **** * Summary:
 464:.\Generated_Source\PSoC4/Bootloader.c **** *  Schedules the specified application and performs software reset to launch
 465:.\Generated_Source\PSoC4/Bootloader.c **** *  a specified application.
 466:.\Generated_Source\PSoC4/Bootloader.c **** *
 467:.\Generated_Source\PSoC4/Bootloader.c **** *  If the specified application is not valid, the Bootloader (the result of the
 468:.\Generated_Source\PSoC4/Bootloader.c **** *  ValidateBootloadable() function execution returns other than CYRET_SUCCESS,
 469:.\Generated_Source\PSoC4/Bootloader.c **** *  the bootloader application is launched.
 470:.\Generated_Source\PSoC4/Bootloader.c **** *
 471:.\Generated_Source\PSoC4/Bootloader.c **** * Parameters:
 472:.\Generated_Source\PSoC4/Bootloader.c **** *  appId: application to be started:
 473:.\Generated_Source\PSoC4/Bootloader.c **** *  Bootloader_EXIT_TO_BTLDR   - Bootloader application will be started on
 474:.\Generated_Source\PSoC4/Bootloader.c **** *                                     software reset.
 475:.\Generated_Source\PSoC4/Bootloader.c **** *  Bootloader_EXIT_TO_BTLDB,
 476:.\Generated_Source\PSoC4/Bootloader.c **** *  Bootloader_EXIT_TO_BTLDB_1 - Bootloadable application # 1 will be
 477:.\Generated_Source\PSoC4/Bootloader.c **** *                                     started on software reset.
 478:.\Generated_Source\PSoC4/Bootloader.c **** *  Bootloader_EXIT_TO_BTLDB_2 - Bootloadable application # 2 will be
 479:.\Generated_Source\PSoC4/Bootloader.c **** *                                     started on software reset. Available only
 480:.\Generated_Source\PSoC4/Bootloader.c **** *                                     if Multi-Application option is enabled in
 481:.\Generated_Source\PSoC4/Bootloader.c **** *                                     the component customizer.
 482:.\Generated_Source\PSoC4/Bootloader.c **** * Returns:
 483:.\Generated_Source\PSoC4/Bootloader.c **** *  This function never returns.
 484:.\Generated_Source\PSoC4/Bootloader.c **** *
 485:.\Generated_Source\PSoC4/Bootloader.c **** *******************************************************************************/
 486:.\Generated_Source\PSoC4/Bootloader.c **** void Bootloader_Exit(uint8 appId) CYSMALL 
 487:.\Generated_Source\PSoC4/Bootloader.c **** {
 488:.\Generated_Source\PSoC4/Bootloader.c ****     if(Bootloader_EXIT_TO_BTLDR == appId)
 489:.\Generated_Source\PSoC4/Bootloader.c ****     {
ARM GAS  C:\Users\kbuchi\AppData\Local\Temp\cc4AaGId.s 			page 10


 490:.\Generated_Source\PSoC4/Bootloader.c ****         Bootloader_SET_RUN_TYPE(0x0u);
 491:.\Generated_Source\PSoC4/Bootloader.c ****     }
 492:.\Generated_Source\PSoC4/Bootloader.c ****     else
 493:.\Generated_Source\PSoC4/Bootloader.c ****     {
 494:.\Generated_Source\PSoC4/Bootloader.c ****         if(CYRET_SUCCESS == Bootloader_ValidateBootloadable(appId))
 495:.\Generated_Source\PSoC4/Bootloader.c ****         {
 496:.\Generated_Source\PSoC4/Bootloader.c ****             /* Set active application in metadata */
 497:.\Generated_Source\PSoC4/Bootloader.c ****             uint8 CYDATA idx;
 498:.\Generated_Source\PSoC4/Bootloader.c ****             for(idx = 0u; idx < Bootloader_MAX_NUM_OF_BTLDB; idx++)
 499:.\Generated_Source\PSoC4/Bootloader.c ****             {
 500:.\Generated_Source\PSoC4/Bootloader.c ****                 Bootloader_SetFlashByte((uint32) Bootloader_MD_BTLDB_ACTIVE_OFFSET(idx),
 501:.\Generated_Source\PSoC4/Bootloader.c ****                                               (uint8 )(idx == appId));
 502:.\Generated_Source\PSoC4/Bootloader.c ****             }
 503:.\Generated_Source\PSoC4/Bootloader.c **** 
 504:.\Generated_Source\PSoC4/Bootloader.c ****         #if(0u != Bootloader_DUAL_APP_BOOTLOADER)
 505:.\Generated_Source\PSoC4/Bootloader.c ****             Bootloader_activeApp = appId;
 506:.\Generated_Source\PSoC4/Bootloader.c ****         #endif /* (0u != Bootloader_DUAL_APP_BOOTLOADER) */
 507:.\Generated_Source\PSoC4/Bootloader.c **** 
 508:.\Generated_Source\PSoC4/Bootloader.c ****             Bootloader_SET_RUN_TYPE(Bootloader_SCHEDULE_BTLDB);
 509:.\Generated_Source\PSoC4/Bootloader.c ****         }
 510:.\Generated_Source\PSoC4/Bootloader.c ****         else
 511:.\Generated_Source\PSoC4/Bootloader.c ****         {
 512:.\Generated_Source\PSoC4/Bootloader.c ****             Bootloader_SET_RUN_TYPE(0u);
 513:.\Generated_Source\PSoC4/Bootloader.c ****         }
 514:.\Generated_Source\PSoC4/Bootloader.c ****     }
 515:.\Generated_Source\PSoC4/Bootloader.c **** 
 516:.\Generated_Source\PSoC4/Bootloader.c ****     CySoftwareReset();
 517:.\Generated_Source\PSoC4/Bootloader.c **** }
 518:.\Generated_Source\PSoC4/Bootloader.c **** 
 519:.\Generated_Source\PSoC4/Bootloader.c **** 
 520:.\Generated_Source\PSoC4/Bootloader.c **** /*******************************************************************************
 521:.\Generated_Source\PSoC4/Bootloader.c **** * Function Name: CyBtldr_CheckLaunch
 522:.\Generated_Source\PSoC4/Bootloader.c **** ********************************************************************************
 523:.\Generated_Source\PSoC4/Bootloader.c **** *
 524:.\Generated_Source\PSoC4/Bootloader.c **** * Summary:
 525:.\Generated_Source\PSoC4/Bootloader.c **** *  This routine checks if the bootloader or the bootloadable application has to
 526:.\Generated_Source\PSoC4/Bootloader.c **** *  be run.  If the application has to be run, it will start executing.
 527:.\Generated_Source\PSoC4/Bootloader.c **** *  If the bootloader is to be run, it will return, so the bootloader can
 528:.\Generated_Source\PSoC4/Bootloader.c **** *  continue starting up.
 529:.\Generated_Source\PSoC4/Bootloader.c **** *
 530:.\Generated_Source\PSoC4/Bootloader.c **** * Parameters:
 531:.\Generated_Source\PSoC4/Bootloader.c **** *  None
 532:.\Generated_Source\PSoC4/Bootloader.c **** *
 533:.\Generated_Source\PSoC4/Bootloader.c **** * Returns:
 534:.\Generated_Source\PSoC4/Bootloader.c **** *  It will not return if it determines that the bootloadable application should
 535:.\Generated_Source\PSoC4/Bootloader.c **** *  be run.
 536:.\Generated_Source\PSoC4/Bootloader.c **** *
 537:.\Generated_Source\PSoC4/Bootloader.c **** *******************************************************************************/
 538:.\Generated_Source\PSoC4/Bootloader.c **** void CyBtldr_CheckLaunch(void) CYSMALL 
 539:.\Generated_Source\PSoC4/Bootloader.c **** {
 540:.\Generated_Source\PSoC4/Bootloader.c **** 
 541:.\Generated_Source\PSoC4/Bootloader.c **** #if(CY_PSOC4)
 542:.\Generated_Source\PSoC4/Bootloader.c **** 
 543:.\Generated_Source\PSoC4/Bootloader.c ****     /*******************************************************************************
 544:.\Generated_Source\PSoC4/Bootloader.c ****     * Set cyBtldrRunType to zero in case of non-software reset occurred. This means
 545:.\Generated_Source\PSoC4/Bootloader.c ****     * that bootloader application is scheduled - that is initial clean state. The
 546:.\Generated_Source\PSoC4/Bootloader.c ****     * value of cyBtldrRunType is valid only in case of software reset.
ARM GAS  C:\Users\kbuchi\AppData\Local\Temp\cc4AaGId.s 			page 11


 547:.\Generated_Source\PSoC4/Bootloader.c ****     *******************************************************************************/
 548:.\Generated_Source\PSoC4/Bootloader.c ****     if (0u == (Bootloader_RES_CAUSE_REG & Bootloader_RES_CAUSE_RESET_SOFT))
 549:.\Generated_Source\PSoC4/Bootloader.c ****     {
 550:.\Generated_Source\PSoC4/Bootloader.c ****         cyBtldrRunType = 0u;
 551:.\Generated_Source\PSoC4/Bootloader.c ****     }
 552:.\Generated_Source\PSoC4/Bootloader.c **** 
 553:.\Generated_Source\PSoC4/Bootloader.c **** #endif /* (CY_PSOC4) */
 554:.\Generated_Source\PSoC4/Bootloader.c **** 
 555:.\Generated_Source\PSoC4/Bootloader.c **** 
 556:.\Generated_Source\PSoC4/Bootloader.c ****     if (Bootloader_GET_RUN_TYPE == Bootloader_START_APP)
 557:.\Generated_Source\PSoC4/Bootloader.c ****     {
 558:.\Generated_Source\PSoC4/Bootloader.c ****         Bootloader_SET_RUN_TYPE(0u);
 559:.\Generated_Source\PSoC4/Bootloader.c **** 
 560:.\Generated_Source\PSoC4/Bootloader.c ****         /*******************************************************************************
 561:.\Generated_Source\PSoC4/Bootloader.c ****         * Indicates that we have told ourselves to jump to the application since we have
 562:.\Generated_Source\PSoC4/Bootloader.c ****         * already told ourselves to jump, we do not do any expensive verification of the
 563:.\Generated_Source\PSoC4/Bootloader.c ****         * application. We just check to make sure that the value at CY_APP_ADDR_ADDRESS
 564:.\Generated_Source\PSoC4/Bootloader.c ****         * is something other than 0.
 565:.\Generated_Source\PSoC4/Bootloader.c ****         *******************************************************************************/
 566:.\Generated_Source\PSoC4/Bootloader.c ****         if(0u != Bootloader_GetMetadata(Bootloader_GET_BTLDB_ADDR, Bootloader_activeApp))
 567:.\Generated_Source\PSoC4/Bootloader.c ****         {
 568:.\Generated_Source\PSoC4/Bootloader.c ****             /* Never return from this method */
 569:.\Generated_Source\PSoC4/Bootloader.c ****             Bootloader_LaunchBootloadable(Bootloader_GetMetadata(Bootloader_GET_BTLDB_ADDR,
 570:.\Generated_Source\PSoC4/Bootloader.c ****                                                                              Bootloader_activeApp))
 571:.\Generated_Source\PSoC4/Bootloader.c ****         }
 572:.\Generated_Source\PSoC4/Bootloader.c ****     }
 573:.\Generated_Source\PSoC4/Bootloader.c **** }
 574:.\Generated_Source\PSoC4/Bootloader.c **** 
 575:.\Generated_Source\PSoC4/Bootloader.c **** 
 576:.\Generated_Source\PSoC4/Bootloader.c **** /* Moves argument appAddr (RO) into PC, moving execution to appAddr */
 577:.\Generated_Source\PSoC4/Bootloader.c **** #if defined (__ARMCC_VERSION)
 578:.\Generated_Source\PSoC4/Bootloader.c **** 
 579:.\Generated_Source\PSoC4/Bootloader.c ****     __asm static void Bootloader_LaunchBootloadable(uint32 appAddr)
 580:.\Generated_Source\PSoC4/Bootloader.c ****     {
 581:.\Generated_Source\PSoC4/Bootloader.c ****         BX  R0
 582:.\Generated_Source\PSoC4/Bootloader.c ****         ALIGN
 583:.\Generated_Source\PSoC4/Bootloader.c ****     }
 584:.\Generated_Source\PSoC4/Bootloader.c **** 
 585:.\Generated_Source\PSoC4/Bootloader.c **** #elif defined(__GNUC__)
 586:.\Generated_Source\PSoC4/Bootloader.c **** 
 587:.\Generated_Source\PSoC4/Bootloader.c ****     __attribute__((noinline)) /* Workaround for GCC toolchain bug with inlining */
 588:.\Generated_Source\PSoC4/Bootloader.c ****     __attribute__((naked))
 589:.\Generated_Source\PSoC4/Bootloader.c ****     static void Bootloader_LaunchBootloadable(uint32 appAddr)
 590:.\Generated_Source\PSoC4/Bootloader.c ****     {
  25              		.loc 1 590 0
  26              		.cfi_startproc
  27              	.LVL0:
 591:.\Generated_Source\PSoC4/Bootloader.c ****         __asm volatile("    BX  R0\n");
  28              		.loc 1 591 0
  29              	@ 591 ".\Generated_Source\PSoC4\Bootloader.c" 1
  30 0000 0047     		    BX  R0
  31              	
  32              	@ 0 "" 2
 592:.\Generated_Source\PSoC4/Bootloader.c ****     }
  33              		.loc 1 592 0
  34              		.code	16
  35              		.cfi_endproc
ARM GAS  C:\Users\kbuchi\AppData\Local\Temp\cc4AaGId.s 			page 12


  36              	.LFE39:
  37              		.size	Bootloader_LaunchBootloadable, .-Bootloader_LaunchBootloadable
  38              		.section	.text.Bootloader_Calc8BitSum,"ax",%progbits
  39              		.align	1
  40              		.global	Bootloader_Calc8BitSum
  41              		.code	16
  42              		.thumb_func
  43              		.type	Bootloader_Calc8BitSum, %function
  44              	Bootloader_Calc8BitSum:
  45              	.LFB34:
 187:.\Generated_Source\PSoC4/Bootloader.c **** {
  46              		.loc 1 187 0
  47              		.cfi_startproc
  48              	.LVL1:
  49 0000 70B5     		push	{r4, r5, r6, lr}
  50              		.cfi_def_cfa_offset 16
  51              		.cfi_offset 4, -16
  52              		.cfi_offset 5, -12
  53              		.cfi_offset 6, -8
  54              		.cfi_offset 14, -4
 187:.\Generated_Source\PSoC4/Bootloader.c **** {
  55              		.loc 1 187 0
  56 0002 051C     		mov	r5, r0
  57 0004 0E1C     		mov	r6, r1
  58 0006 141C     		mov	r4, r2
 193:.\Generated_Source\PSoC4/Bootloader.c ****         CYASSERT(baseAddr == CY_FLASH_BASE);
  59              		.loc 1 193 0
  60 0008 0028     		cmp	r0, #0
  61 000a 02D0     		beq	.L3
 193:.\Generated_Source\PSoC4/Bootloader.c ****         CYASSERT(baseAddr == CY_FLASH_BASE);
  62              		.loc 1 193 0 is_stmt 0 discriminator 1
  63 000c 0020     		mov	r0, #0
  64              	.LVL2:
  65 000e FFF7FEFF 		bl	CyHalt
  66              	.LVL3:
  67              	.L3:
 187:.\Generated_Source\PSoC4/Bootloader.c **** {
  68              		.loc 1 187 0 is_stmt 1 discriminator 1
  69 0012 0020     		mov	r0, #0
  70              	.LVL4:
  71              	.L4:
 196:.\Generated_Source\PSoC4/Bootloader.c ****     while (size > 0u)
  72              		.loc 1 196 0 discriminator 1
  73 0014 002C     		cmp	r4, #0
  74 0016 05D0     		beq	.L10
 198:.\Generated_Source\PSoC4/Bootloader.c ****         size--;
  75              		.loc 1 198 0
  76 0018 013C     		sub	r4, r4, #1
  77              	.LVL5:
 199:.\Generated_Source\PSoC4/Bootloader.c ****         sum += (*((uint8  *)(baseAddr + start + size)));
  78              		.loc 1 199 0
  79 001a AA19     		add	r2, r5, r6
  80 001c 125D     		ldrb	r2, [r2, r4]
  81 001e 8318     		add	r3, r0, r2
  82 0020 D8B2     		uxtb	r0, r3
  83              	.LVL6:
  84 0022 F7E7     		b	.L4
ARM GAS  C:\Users\kbuchi\AppData\Local\Temp\cc4AaGId.s 			page 13


  85              	.LVL7:
  86              	.L10:
 203:.\Generated_Source\PSoC4/Bootloader.c **** }
  87              		.loc 1 203 0
  88              		@ sp needed
  89              	.LVL8:
  90              	.LVL9:
  91              	.LVL10:
  92 0024 70BD     		pop	{r4, r5, r6, pc}
  93              		.cfi_endproc
  94              	.LFE34:
  95              		.size	Bootloader_Calc8BitSum, .-Bootloader_Calc8BitSum
  96              		.section	.text.Bootloader_SetFlashByte,"ax",%progbits
  97              		.align	1
  98              		.global	Bootloader_SetFlashByte
  99              		.code	16
 100              		.thumb_func
 101              		.type	Bootloader_SetFlashByte, %function
 102              	Bootloader_SetFlashByte:
 103              	.LFB43:
 593:.\Generated_Source\PSoC4/Bootloader.c **** 
 594:.\Generated_Source\PSoC4/Bootloader.c **** #elif defined (__ICCARM__)
 595:.\Generated_Source\PSoC4/Bootloader.c **** 
 596:.\Generated_Source\PSoC4/Bootloader.c ****     static void Bootloader_LaunchBootloadable(uint32 appAddr)
 597:.\Generated_Source\PSoC4/Bootloader.c ****     {
 598:.\Generated_Source\PSoC4/Bootloader.c ****         __asm volatile("    BX  R0\n");
 599:.\Generated_Source\PSoC4/Bootloader.c ****     }
 600:.\Generated_Source\PSoC4/Bootloader.c **** 
 601:.\Generated_Source\PSoC4/Bootloader.c **** #endif  /* (__ARMCC_VERSION) */
 602:.\Generated_Source\PSoC4/Bootloader.c **** 
 603:.\Generated_Source\PSoC4/Bootloader.c **** 
 604:.\Generated_Source\PSoC4/Bootloader.c **** /*******************************************************************************
 605:.\Generated_Source\PSoC4/Bootloader.c **** * Function Name: Bootloader_ValidateBootloadable
 606:.\Generated_Source\PSoC4/Bootloader.c **** ********************************************************************************
 607:.\Generated_Source\PSoC4/Bootloader.c **** * Summary:
 608:.\Generated_Source\PSoC4/Bootloader.c **** *  Performs the bootloadable application validation by calculating the
 609:.\Generated_Source\PSoC4/Bootloader.c **** *  application image checksum and comparing it with the checksum value stored
 610:.\Generated_Source\PSoC4/Bootloader.c **** *  in the Bootloadable Application Checksum field of the metadata section.
 611:.\Generated_Source\PSoC4/Bootloader.c **** *
 612:.\Generated_Source\PSoC4/Bootloader.c **** *  If the Fast bootloadable application validation option is enabled in the
 613:.\Generated_Source\PSoC4/Bootloader.c **** *  component customizer and bootloadable application successfully passes
 614:.\Generated_Source\PSoC4/Bootloader.c **** *  validation, the Bootloadable Application Verification Status field of the
 615:.\Generated_Source\PSoC4/Bootloader.c **** *  metadata section is updated. Refer to the Metadata Layout section for the
 616:.\Generated_Source\PSoC4/Bootloader.c **** *  details.
 617:.\Generated_Source\PSoC4/Bootloader.c **** *
 618:.\Generated_Source\PSoC4/Bootloader.c **** *  If the Fast bootloadable application validation option is enabled and
 619:.\Generated_Source\PSoC4/Bootloader.c **** *  Bootloadable Application Verification Status field of the metadata section
 620:.\Generated_Source\PSoC4/Bootloader.c **** *  claims that bootloadable application is valid, the function returns
 621:.\Generated_Source\PSoC4/Bootloader.c **** *  CYRET_SUCCESS without further checksum calculation.
 622:.\Generated_Source\PSoC4/Bootloader.c **** *
 623:.\Generated_Source\PSoC4/Bootloader.c **** * Parameters:
 624:.\Generated_Source\PSoC4/Bootloader.c **** *  appId:
 625:.\Generated_Source\PSoC4/Bootloader.c **** *  The number of the bootloadable application should be 0 for the normal
 626:.\Generated_Source\PSoC4/Bootloader.c **** *  bootloader and 0 or 1 for the Multi-Application bootloader.
 627:.\Generated_Source\PSoC4/Bootloader.c **** *
 628:.\Generated_Source\PSoC4/Bootloader.c **** * Returns:
 629:.\Generated_Source\PSoC4/Bootloader.c **** *  Returns CYRET_SUCCESS if the specified bootloadable application is valid.
ARM GAS  C:\Users\kbuchi\AppData\Local\Temp\cc4AaGId.s 			page 14


 630:.\Generated_Source\PSoC4/Bootloader.c **** *
 631:.\Generated_Source\PSoC4/Bootloader.c **** *******************************************************************************/
 632:.\Generated_Source\PSoC4/Bootloader.c **** cystatus Bootloader_ValidateBootloadable(uint8 appId) CYSMALL \
 633:.\Generated_Source\PSoC4/Bootloader.c **** 
 634:.\Generated_Source\PSoC4/Bootloader.c ****     {
 635:.\Generated_Source\PSoC4/Bootloader.c ****         uint32 CYDATA idx;
 636:.\Generated_Source\PSoC4/Bootloader.c **** 
 637:.\Generated_Source\PSoC4/Bootloader.c ****         uint32 CYDATA end   = Bootloader_FIRST_APP_BYTE(appId) +
 638:.\Generated_Source\PSoC4/Bootloader.c ****                                 Bootloader_GetMetadata(Bootloader_GET_BTLDB_LENGTH,
 639:.\Generated_Source\PSoC4/Bootloader.c ****                                                        appId);
 640:.\Generated_Source\PSoC4/Bootloader.c **** 
 641:.\Generated_Source\PSoC4/Bootloader.c ****         CYBIT         valid = 0u; /* Assume bad flash image */
 642:.\Generated_Source\PSoC4/Bootloader.c ****         uint8  CYDATA calcedChecksum = 0u;
 643:.\Generated_Source\PSoC4/Bootloader.c **** 
 644:.\Generated_Source\PSoC4/Bootloader.c **** 
 645:.\Generated_Source\PSoC4/Bootloader.c ****         #if(0u != Bootloader_DUAL_APP_BOOTLOADER)
 646:.\Generated_Source\PSoC4/Bootloader.c **** 
 647:.\Generated_Source\PSoC4/Bootloader.c ****             if(appId > 1u)
 648:.\Generated_Source\PSoC4/Bootloader.c ****             {
 649:.\Generated_Source\PSoC4/Bootloader.c ****                 return(CYRET_BAD_DATA);
 650:.\Generated_Source\PSoC4/Bootloader.c ****             }
 651:.\Generated_Source\PSoC4/Bootloader.c **** 
 652:.\Generated_Source\PSoC4/Bootloader.c ****         #endif  /* (0u != Bootloader_DUAL_APP_BOOTLOADER) */
 653:.\Generated_Source\PSoC4/Bootloader.c **** 
 654:.\Generated_Source\PSoC4/Bootloader.c **** 
 655:.\Generated_Source\PSoC4/Bootloader.c ****         #if(0u != Bootloader_FAST_APP_VALIDATION)
 656:.\Generated_Source\PSoC4/Bootloader.c **** 
 657:.\Generated_Source\PSoC4/Bootloader.c **** 
 658:.\Generated_Source\PSoC4/Bootloader.c ****             if(Bootloader_GetMetadata(Bootloader_GET_BTLDB_STATUS, appId) ==
 659:.\Generated_Source\PSoC4/Bootloader.c ****                Bootloader_MD_BTLDB_IS_VERIFIED)
 660:.\Generated_Source\PSoC4/Bootloader.c ****             {
 661:.\Generated_Source\PSoC4/Bootloader.c ****                 return(CYRET_SUCCESS);
 662:.\Generated_Source\PSoC4/Bootloader.c ****             }
 663:.\Generated_Source\PSoC4/Bootloader.c **** 
 664:.\Generated_Source\PSoC4/Bootloader.c ****         #endif  /* (0u != Bootloader_FAST_APP_VALIDATION) */
 665:.\Generated_Source\PSoC4/Bootloader.c **** 
 666:.\Generated_Source\PSoC4/Bootloader.c **** 
 667:.\Generated_Source\PSoC4/Bootloader.c ****         /* Calculate checksum of bootloadable image */
 668:.\Generated_Source\PSoC4/Bootloader.c ****         for(idx = Bootloader_FIRST_APP_BYTE(appId); idx < end; ++idx)
 669:.\Generated_Source\PSoC4/Bootloader.c ****         {
 670:.\Generated_Source\PSoC4/Bootloader.c ****             uint8 CYDATA curByte = Bootloader_GET_CODE_BYTE(idx);
 671:.\Generated_Source\PSoC4/Bootloader.c **** 
 672:.\Generated_Source\PSoC4/Bootloader.c ****             if((curByte != 0u) && (curByte != 0xFFu))
 673:.\Generated_Source\PSoC4/Bootloader.c ****             {
 674:.\Generated_Source\PSoC4/Bootloader.c ****                 valid = 1u;
 675:.\Generated_Source\PSoC4/Bootloader.c ****             }
 676:.\Generated_Source\PSoC4/Bootloader.c **** 
 677:.\Generated_Source\PSoC4/Bootloader.c ****             calcedChecksum += curByte;
 678:.\Generated_Source\PSoC4/Bootloader.c ****         }
 679:.\Generated_Source\PSoC4/Bootloader.c **** 
 680:.\Generated_Source\PSoC4/Bootloader.c **** 
 681:.\Generated_Source\PSoC4/Bootloader.c ****         /***************************************************************************
 682:.\Generated_Source\PSoC4/Bootloader.c ****         * We do not compute checksum over the meta data section, so no need to
 683:.\Generated_Source\PSoC4/Bootloader.c ****         * subtract off App Verified or App Active information here like we do when
 684:.\Generated_Source\PSoC4/Bootloader.c ****         * verifying a row.
 685:.\Generated_Source\PSoC4/Bootloader.c ****         ***************************************************************************/
 686:.\Generated_Source\PSoC4/Bootloader.c **** 
ARM GAS  C:\Users\kbuchi\AppData\Local\Temp\cc4AaGId.s 			page 15


 687:.\Generated_Source\PSoC4/Bootloader.c **** 
 688:.\Generated_Source\PSoC4/Bootloader.c ****         #if((!CY_PSOC4) && (CYDEV_ECC_ENABLE == 0u))
 689:.\Generated_Source\PSoC4/Bootloader.c **** 
 690:.\Generated_Source\PSoC4/Bootloader.c ****             /* Add ECC data to checksum */
 691:.\Generated_Source\PSoC4/Bootloader.c ****             idx = ((Bootloader_FIRST_APP_BYTE(appId)) >> 3u);
 692:.\Generated_Source\PSoC4/Bootloader.c **** 
 693:.\Generated_Source\PSoC4/Bootloader.c ****             /* Flash may run into meta data, so ECC does not use full row */
 694:.\Generated_Source\PSoC4/Bootloader.c ****             end = (end == (CY_FLASH_SIZE - Bootloader_MD_SIZEOF))
 695:.\Generated_Source\PSoC4/Bootloader.c ****                 ? (CY_FLASH_SIZE >> 3u)
 696:.\Generated_Source\PSoC4/Bootloader.c ****                 : (end >> 3u);
 697:.\Generated_Source\PSoC4/Bootloader.c **** 
 698:.\Generated_Source\PSoC4/Bootloader.c ****             for (; idx < end; ++idx)
 699:.\Generated_Source\PSoC4/Bootloader.c ****             {
 700:.\Generated_Source\PSoC4/Bootloader.c ****                 calcedChecksum += CY_GET_XTND_REG8((volatile uint8 *)(CYDEV_ECC_BASE + idx));
 701:.\Generated_Source\PSoC4/Bootloader.c ****             }
 702:.\Generated_Source\PSoC4/Bootloader.c **** 
 703:.\Generated_Source\PSoC4/Bootloader.c ****         #endif  /* ((!CY_PSOC4) && (CYDEV_ECC_ENABLE == 0u)) */
 704:.\Generated_Source\PSoC4/Bootloader.c **** 
 705:.\Generated_Source\PSoC4/Bootloader.c **** 
 706:.\Generated_Source\PSoC4/Bootloader.c ****         calcedChecksum = ( uint8 )1u + ( uint8 )(~calcedChecksum);
 707:.\Generated_Source\PSoC4/Bootloader.c **** 
 708:.\Generated_Source\PSoC4/Bootloader.c **** 
 709:.\Generated_Source\PSoC4/Bootloader.c ****         if((calcedChecksum != Bootloader_GetMetadata(Bootloader_GET_BTLDB_CHECKSUM, appId)) ||
 710:.\Generated_Source\PSoC4/Bootloader.c ****            (0u == valid))
 711:.\Generated_Source\PSoC4/Bootloader.c ****         {
 712:.\Generated_Source\PSoC4/Bootloader.c ****             return(CYRET_BAD_DATA);
 713:.\Generated_Source\PSoC4/Bootloader.c ****         }
 714:.\Generated_Source\PSoC4/Bootloader.c **** 
 715:.\Generated_Source\PSoC4/Bootloader.c **** 
 716:.\Generated_Source\PSoC4/Bootloader.c ****         #if(0u != Bootloader_FAST_APP_VALIDATION)
 717:.\Generated_Source\PSoC4/Bootloader.c ****             Bootloader_SetFlashByte((uint32) Bootloader_MD_BTLDB_VERIFIED_OFFSET(appId),
 718:.\Generated_Source\PSoC4/Bootloader.c ****                                           Bootloader_MD_BTLDB_IS_VERIFIED);
 719:.\Generated_Source\PSoC4/Bootloader.c ****         #endif  /* (0u != Bootloader_FAST_APP_VALIDATION) */
 720:.\Generated_Source\PSoC4/Bootloader.c **** 
 721:.\Generated_Source\PSoC4/Bootloader.c **** 
 722:.\Generated_Source\PSoC4/Bootloader.c ****         return(CYRET_SUCCESS);
 723:.\Generated_Source\PSoC4/Bootloader.c **** }
 724:.\Generated_Source\PSoC4/Bootloader.c **** 
 725:.\Generated_Source\PSoC4/Bootloader.c **** 
 726:.\Generated_Source\PSoC4/Bootloader.c **** /*******************************************************************************
 727:.\Generated_Source\PSoC4/Bootloader.c **** * Function Name: Bootloader_HostLink
 728:.\Generated_Source\PSoC4/Bootloader.c **** ********************************************************************************
 729:.\Generated_Source\PSoC4/Bootloader.c **** *
 730:.\Generated_Source\PSoC4/Bootloader.c **** * Summary:
 731:.\Generated_Source\PSoC4/Bootloader.c **** *  Causes the bootloader to attempt to read data being transmitted by the
 732:.\Generated_Source\PSoC4/Bootloader.c **** *  host application.  If data is sent from the host, this establishes the
 733:.\Generated_Source\PSoC4/Bootloader.c **** *  communication interface to process all requests.
 734:.\Generated_Source\PSoC4/Bootloader.c **** *
 735:.\Generated_Source\PSoC4/Bootloader.c **** * Parameters:
 736:.\Generated_Source\PSoC4/Bootloader.c **** *  timeOut:
 737:.\Generated_Source\PSoC4/Bootloader.c **** *   The amount of time to listen for data before giving up. Timeout is
 738:.\Generated_Source\PSoC4/Bootloader.c **** *   measured in 10s of ms.  Use 0 for an infinite wait.
 739:.\Generated_Source\PSoC4/Bootloader.c **** *
 740:.\Generated_Source\PSoC4/Bootloader.c **** * Return:
 741:.\Generated_Source\PSoC4/Bootloader.c **** *   None
 742:.\Generated_Source\PSoC4/Bootloader.c **** *
 743:.\Generated_Source\PSoC4/Bootloader.c **** *******************************************************************************/
ARM GAS  C:\Users\kbuchi\AppData\Local\Temp\cc4AaGId.s 			page 16


 744:.\Generated_Source\PSoC4/Bootloader.c **** static void Bootloader_HostLink(uint8 timeOut) 
 745:.\Generated_Source\PSoC4/Bootloader.c **** {
 746:.\Generated_Source\PSoC4/Bootloader.c ****     uint16    CYDATA numberRead;
 747:.\Generated_Source\PSoC4/Bootloader.c ****     uint16    CYDATA rspSize;
 748:.\Generated_Source\PSoC4/Bootloader.c ****     uint8     CYDATA ackCode;
 749:.\Generated_Source\PSoC4/Bootloader.c ****     uint16    CYDATA pktChecksum;
 750:.\Generated_Source\PSoC4/Bootloader.c ****     cystatus  CYDATA readStat;
 751:.\Generated_Source\PSoC4/Bootloader.c ****     uint16    CYDATA pktSize    = 0u;
 752:.\Generated_Source\PSoC4/Bootloader.c ****     uint16    CYDATA dataOffset = 0u;
 753:.\Generated_Source\PSoC4/Bootloader.c ****     uint8     CYDATA timeOutCnt = 10u;
 754:.\Generated_Source\PSoC4/Bootloader.c **** 
 755:.\Generated_Source\PSoC4/Bootloader.c ****     #if(0u != Bootloader_FAST_APP_VALIDATION)
 756:.\Generated_Source\PSoC4/Bootloader.c ****         uint8 CYDATA clearedMetaData = 0u;
 757:.\Generated_Source\PSoC4/Bootloader.c ****     #endif  /* (0u != Bootloader_FAST_APP_VALIDATION) */
 758:.\Generated_Source\PSoC4/Bootloader.c **** 
 759:.\Generated_Source\PSoC4/Bootloader.c ****     CYBIT     communicationState = Bootloader_COMMUNICATION_STATE_IDLE;
 760:.\Generated_Source\PSoC4/Bootloader.c **** 
 761:.\Generated_Source\PSoC4/Bootloader.c ****     uint8     packetBuffer[Bootloader_SIZEOF_COMMAND_BUFFER];
 762:.\Generated_Source\PSoC4/Bootloader.c ****     uint8     dataBuffer  [Bootloader_SIZEOF_COMMAND_BUFFER];
 763:.\Generated_Source\PSoC4/Bootloader.c **** 
 764:.\Generated_Source\PSoC4/Bootloader.c **** 
 765:.\Generated_Source\PSoC4/Bootloader.c ****     #if(!CY_PSOC4)
 766:.\Generated_Source\PSoC4/Bootloader.c ****         #if(0u == Bootloader_FAST_APP_VALIDATION)
 767:.\Generated_Source\PSoC4/Bootloader.c ****             #if !defined(CY_BOOT_VERSION)
 768:.\Generated_Source\PSoC4/Bootloader.c **** 
 769:.\Generated_Source\PSoC4/Bootloader.c ****                 /* Not required with cy_boot 4.20 */
 770:.\Generated_Source\PSoC4/Bootloader.c ****                 uint8 CYXDATA Bootloader_flashBuffer[Bootloader_FROW_SIZE];
 771:.\Generated_Source\PSoC4/Bootloader.c **** 
 772:.\Generated_Source\PSoC4/Bootloader.c ****             #endif /* !defined(CY_BOOT_VERSION) */
 773:.\Generated_Source\PSoC4/Bootloader.c ****         #endif  /* (0u == Bootloader_FAST_APP_VALIDATION) */
 774:.\Generated_Source\PSoC4/Bootloader.c ****     #endif  /* (CY_PSOC4) */
 775:.\Generated_Source\PSoC4/Bootloader.c **** 
 776:.\Generated_Source\PSoC4/Bootloader.c **** 
 777:.\Generated_Source\PSoC4/Bootloader.c **** 
 778:.\Generated_Source\PSoC4/Bootloader.c ****     #if(!CY_PSOC4)
 779:.\Generated_Source\PSoC4/Bootloader.c ****         #if(0u == Bootloader_FAST_APP_VALIDATION)
 780:.\Generated_Source\PSoC4/Bootloader.c **** 
 781:.\Generated_Source\PSoC4/Bootloader.c ****             /* Initialize Flash subsystem for non-PSoC 4 devices */
 782:.\Generated_Source\PSoC4/Bootloader.c ****             if (CYRET_SUCCESS != CySetTemp())
 783:.\Generated_Source\PSoC4/Bootloader.c ****             {
 784:.\Generated_Source\PSoC4/Bootloader.c ****                 CyHalt(0x00u);
 785:.\Generated_Source\PSoC4/Bootloader.c ****             }
 786:.\Generated_Source\PSoC4/Bootloader.c **** 
 787:.\Generated_Source\PSoC4/Bootloader.c ****             #if !defined(CY_BOOT_VERSION)
 788:.\Generated_Source\PSoC4/Bootloader.c **** 
 789:.\Generated_Source\PSoC4/Bootloader.c ****                 /* Not required with cy_boot 4.20 */
 790:.\Generated_Source\PSoC4/Bootloader.c ****                 if (CYRET_SUCCESS != CySetFlashEEBuffer(Bootloader_flashBuffer))
 791:.\Generated_Source\PSoC4/Bootloader.c ****                 {
 792:.\Generated_Source\PSoC4/Bootloader.c ****                     CyHalt(0x00u);
 793:.\Generated_Source\PSoC4/Bootloader.c ****                 }
 794:.\Generated_Source\PSoC4/Bootloader.c **** 
 795:.\Generated_Source\PSoC4/Bootloader.c ****             #endif /* !defined(CY_BOOT_VERSION) */
 796:.\Generated_Source\PSoC4/Bootloader.c ****         #endif  /* (0u == Bootloader_FAST_APP_VALIDATION) */
 797:.\Generated_Source\PSoC4/Bootloader.c ****     #endif  /* (CY_PSOC4) */
 798:.\Generated_Source\PSoC4/Bootloader.c **** 
 799:.\Generated_Source\PSoC4/Bootloader.c ****     /* Initialize communications channel. */
 800:.\Generated_Source\PSoC4/Bootloader.c ****     CyBtldrCommStart();
ARM GAS  C:\Users\kbuchi\AppData\Local\Temp\cc4AaGId.s 			page 17


 801:.\Generated_Source\PSoC4/Bootloader.c **** 
 802:.\Generated_Source\PSoC4/Bootloader.c ****     /* Enable global interrupts */
 803:.\Generated_Source\PSoC4/Bootloader.c ****     CyGlobalIntEnable;
 804:.\Generated_Source\PSoC4/Bootloader.c **** 
 805:.\Generated_Source\PSoC4/Bootloader.c ****     do
 806:.\Generated_Source\PSoC4/Bootloader.c ****     {
 807:.\Generated_Source\PSoC4/Bootloader.c ****         ackCode = CYRET_SUCCESS;
 808:.\Generated_Source\PSoC4/Bootloader.c **** 
 809:.\Generated_Source\PSoC4/Bootloader.c ****         do
 810:.\Generated_Source\PSoC4/Bootloader.c ****         {
 811:.\Generated_Source\PSoC4/Bootloader.c ****             readStat = CyBtldrCommRead(packetBuffer,
 812:.\Generated_Source\PSoC4/Bootloader.c ****                                         Bootloader_SIZEOF_COMMAND_BUFFER,
 813:.\Generated_Source\PSoC4/Bootloader.c ****                                         &numberRead,
 814:.\Generated_Source\PSoC4/Bootloader.c ****                                         (0u == timeOut) ? 0xFFu : timeOut);
 815:.\Generated_Source\PSoC4/Bootloader.c ****             if (0u != timeOut)
 816:.\Generated_Source\PSoC4/Bootloader.c ****             {
 817:.\Generated_Source\PSoC4/Bootloader.c ****                 timeOutCnt--;
 818:.\Generated_Source\PSoC4/Bootloader.c ****             }
 819:.\Generated_Source\PSoC4/Bootloader.c **** 
 820:.\Generated_Source\PSoC4/Bootloader.c ****         } while ( (0u != timeOutCnt) && (readStat != CYRET_SUCCESS) );
 821:.\Generated_Source\PSoC4/Bootloader.c **** 
 822:.\Generated_Source\PSoC4/Bootloader.c **** 
 823:.\Generated_Source\PSoC4/Bootloader.c ****         if( readStat != CYRET_SUCCESS )
 824:.\Generated_Source\PSoC4/Bootloader.c ****         {
 825:.\Generated_Source\PSoC4/Bootloader.c ****             continue;
 826:.\Generated_Source\PSoC4/Bootloader.c ****         }
 827:.\Generated_Source\PSoC4/Bootloader.c **** 
 828:.\Generated_Source\PSoC4/Bootloader.c ****         if((numberRead < Bootloader_MIN_PKT_SIZE) ||
 829:.\Generated_Source\PSoC4/Bootloader.c ****            (packetBuffer[Bootloader_SOP_ADDR] != Bootloader_SOP))
 830:.\Generated_Source\PSoC4/Bootloader.c ****         {
 831:.\Generated_Source\PSoC4/Bootloader.c ****             ackCode = Bootloader_ERR_DATA;
 832:.\Generated_Source\PSoC4/Bootloader.c ****         }
 833:.\Generated_Source\PSoC4/Bootloader.c ****         else
 834:.\Generated_Source\PSoC4/Bootloader.c ****         {
 835:.\Generated_Source\PSoC4/Bootloader.c ****             pktSize = ((uint16)((uint16)packetBuffer[Bootloader_SIZE_ADDR + 1u] << 8u)) |
 836:.\Generated_Source\PSoC4/Bootloader.c ****                                packetBuffer[Bootloader_SIZE_ADDR];
 837:.\Generated_Source\PSoC4/Bootloader.c **** 
 838:.\Generated_Source\PSoC4/Bootloader.c ****             pktChecksum = ((uint16)((uint16)packetBuffer[Bootloader_CHK_ADDR(pktSize) + 1u] << 8u))
 839:.\Generated_Source\PSoC4/Bootloader.c ****                                    packetBuffer[Bootloader_CHK_ADDR(pktSize)];
 840:.\Generated_Source\PSoC4/Bootloader.c **** 
 841:.\Generated_Source\PSoC4/Bootloader.c ****             if((pktSize + Bootloader_MIN_PKT_SIZE) > numberRead)
 842:.\Generated_Source\PSoC4/Bootloader.c ****             {
 843:.\Generated_Source\PSoC4/Bootloader.c ****                 ackCode = Bootloader_ERR_LENGTH;
 844:.\Generated_Source\PSoC4/Bootloader.c ****             }
 845:.\Generated_Source\PSoC4/Bootloader.c ****             else if(packetBuffer[Bootloader_EOP_ADDR(pktSize)] != Bootloader_EOP)
 846:.\Generated_Source\PSoC4/Bootloader.c ****             {
 847:.\Generated_Source\PSoC4/Bootloader.c ****                 ackCode = Bootloader_ERR_DATA;
 848:.\Generated_Source\PSoC4/Bootloader.c ****             }
 849:.\Generated_Source\PSoC4/Bootloader.c ****             else if(pktChecksum != Bootloader_CalcPacketChecksum(packetBuffer,
 850:.\Generated_Source\PSoC4/Bootloader.c ****                                                                         pktSize + Bootloader_DATA_A
 851:.\Generated_Source\PSoC4/Bootloader.c ****             {
 852:.\Generated_Source\PSoC4/Bootloader.c ****                 ackCode = Bootloader_ERR_CHECKSUM;
 853:.\Generated_Source\PSoC4/Bootloader.c ****             }
 854:.\Generated_Source\PSoC4/Bootloader.c ****             else
 855:.\Generated_Source\PSoC4/Bootloader.c ****             {
 856:.\Generated_Source\PSoC4/Bootloader.c ****                 /* Empty section */
 857:.\Generated_Source\PSoC4/Bootloader.c ****             }
ARM GAS  C:\Users\kbuchi\AppData\Local\Temp\cc4AaGId.s 			page 18


 858:.\Generated_Source\PSoC4/Bootloader.c ****         }
 859:.\Generated_Source\PSoC4/Bootloader.c **** 
 860:.\Generated_Source\PSoC4/Bootloader.c ****         rspSize = 0u;
 861:.\Generated_Source\PSoC4/Bootloader.c ****         if(ackCode == CYRET_SUCCESS)
 862:.\Generated_Source\PSoC4/Bootloader.c ****         {
 863:.\Generated_Source\PSoC4/Bootloader.c ****             uint8 CYDATA btldrData = packetBuffer[Bootloader_DATA_ADDR];
 864:.\Generated_Source\PSoC4/Bootloader.c **** 
 865:.\Generated_Source\PSoC4/Bootloader.c ****             ackCode = Bootloader_ERR_DATA;
 866:.\Generated_Source\PSoC4/Bootloader.c ****             switch(packetBuffer[Bootloader_CMD_ADDR])
 867:.\Generated_Source\PSoC4/Bootloader.c ****             {
 868:.\Generated_Source\PSoC4/Bootloader.c **** 
 869:.\Generated_Source\PSoC4/Bootloader.c **** 
 870:.\Generated_Source\PSoC4/Bootloader.c ****             /***************************************************************************
 871:.\Generated_Source\PSoC4/Bootloader.c ****             *   Get metadata
 872:.\Generated_Source\PSoC4/Bootloader.c ****             ***************************************************************************/
 873:.\Generated_Source\PSoC4/Bootloader.c ****             #if(0u != Bootloader_CMD_GET_METADATA)
 874:.\Generated_Source\PSoC4/Bootloader.c **** 
 875:.\Generated_Source\PSoC4/Bootloader.c ****                 case Bootloader_COMMAND_GET_METADATA:
 876:.\Generated_Source\PSoC4/Bootloader.c **** 
 877:.\Generated_Source\PSoC4/Bootloader.c ****                     if((Bootloader_COMMUNICATION_STATE_ACTIVE == communicationState) && (pktSize ==
 878:.\Generated_Source\PSoC4/Bootloader.c ****                     {
 879:.\Generated_Source\PSoC4/Bootloader.c ****                         if (btldrData >= Bootloader_MAX_NUM_OF_BTLDB)
 880:.\Generated_Source\PSoC4/Bootloader.c ****                         {
 881:.\Generated_Source\PSoC4/Bootloader.c ****                             ackCode = Bootloader_ERR_APP;
 882:.\Generated_Source\PSoC4/Bootloader.c ****                         }
 883:.\Generated_Source\PSoC4/Bootloader.c ****                         else if(CYRET_SUCCESS == Bootloader_ValidateBootloadable(btldrData))
 884:.\Generated_Source\PSoC4/Bootloader.c ****                         {
 885:.\Generated_Source\PSoC4/Bootloader.c ****                             #if(CY_PSOC3)
 886:.\Generated_Source\PSoC4/Bootloader.c ****                                 (void) memcpy(&packetBuffer[Bootloader_DATA_ADDR],
 887:.\Generated_Source\PSoC4/Bootloader.c ****                                             ((uint8  CYCODE *) (Bootloader_META_BASE(btldrData))),
 888:.\Generated_Source\PSoC4/Bootloader.c ****                                             Bootloader_GET_METADATA_RESPONSE_SIZE);
 889:.\Generated_Source\PSoC4/Bootloader.c ****                             #else
 890:.\Generated_Source\PSoC4/Bootloader.c ****                                 (void) memcpy(&packetBuffer[Bootloader_DATA_ADDR],
 891:.\Generated_Source\PSoC4/Bootloader.c ****                                             (uint8 *) Bootloader_META_BASE(btldrData),
 892:.\Generated_Source\PSoC4/Bootloader.c ****                                             Bootloader_GET_METADATA_RESPONSE_SIZE);
 893:.\Generated_Source\PSoC4/Bootloader.c ****                             #endif  /* (CY_PSOC3) */
 894:.\Generated_Source\PSoC4/Bootloader.c **** 
 895:.\Generated_Source\PSoC4/Bootloader.c ****                             rspSize = 56u;
 896:.\Generated_Source\PSoC4/Bootloader.c ****                             ackCode = CYRET_SUCCESS;
 897:.\Generated_Source\PSoC4/Bootloader.c ****                         }
 898:.\Generated_Source\PSoC4/Bootloader.c ****                         else
 899:.\Generated_Source\PSoC4/Bootloader.c ****                         {
 900:.\Generated_Source\PSoC4/Bootloader.c ****                             ackCode = Bootloader_ERR_APP;
 901:.\Generated_Source\PSoC4/Bootloader.c ****                         }
 902:.\Generated_Source\PSoC4/Bootloader.c ****                     }
 903:.\Generated_Source\PSoC4/Bootloader.c ****                     break;
 904:.\Generated_Source\PSoC4/Bootloader.c **** 
 905:.\Generated_Source\PSoC4/Bootloader.c ****             #endif  /* (0u != Bootloader_CMD_GET_METADATA) */
 906:.\Generated_Source\PSoC4/Bootloader.c **** 
 907:.\Generated_Source\PSoC4/Bootloader.c **** 
 908:.\Generated_Source\PSoC4/Bootloader.c ****             /***************************************************************************
 909:.\Generated_Source\PSoC4/Bootloader.c ****             *   Verify checksum
 910:.\Generated_Source\PSoC4/Bootloader.c ****             ***************************************************************************/
 911:.\Generated_Source\PSoC4/Bootloader.c ****             case Bootloader_COMMAND_CHECKSUM:
 912:.\Generated_Source\PSoC4/Bootloader.c **** 
 913:.\Generated_Source\PSoC4/Bootloader.c ****                 if((Bootloader_COMMUNICATION_STATE_ACTIVE == communicationState) && (pktSize == 0u)
 914:.\Generated_Source\PSoC4/Bootloader.c ****                 {
ARM GAS  C:\Users\kbuchi\AppData\Local\Temp\cc4AaGId.s 			page 19


 915:.\Generated_Source\PSoC4/Bootloader.c ****                     packetBuffer[Bootloader_DATA_ADDR] =
 916:.\Generated_Source\PSoC4/Bootloader.c ****                             (uint8)(Bootloader_ValidateBootloadable(Bootloader_activeApp) == CYRET_
 917:.\Generated_Source\PSoC4/Bootloader.c **** 
 918:.\Generated_Source\PSoC4/Bootloader.c ****                     rspSize = 1u;
 919:.\Generated_Source\PSoC4/Bootloader.c ****                     ackCode = CYRET_SUCCESS;
 920:.\Generated_Source\PSoC4/Bootloader.c ****                 }
 921:.\Generated_Source\PSoC4/Bootloader.c ****                 break;
 922:.\Generated_Source\PSoC4/Bootloader.c **** 
 923:.\Generated_Source\PSoC4/Bootloader.c **** 
 924:.\Generated_Source\PSoC4/Bootloader.c ****             /***************************************************************************
 925:.\Generated_Source\PSoC4/Bootloader.c ****             *   Get flash size
 926:.\Generated_Source\PSoC4/Bootloader.c ****             ***************************************************************************/
 927:.\Generated_Source\PSoC4/Bootloader.c **** 
 928:.\Generated_Source\PSoC4/Bootloader.c ****             /* Replace Bootloader_NUM_OF_FLASH_ARRAYS with CY_FLASH_NUMBER_ARRAYS */
 929:.\Generated_Source\PSoC4/Bootloader.c **** 
 930:.\Generated_Source\PSoC4/Bootloader.c **** 
 931:.\Generated_Source\PSoC4/Bootloader.c ****             #if(0u != Bootloader_CMD_GET_FLASH_SIZE_AVAIL)
 932:.\Generated_Source\PSoC4/Bootloader.c **** 
 933:.\Generated_Source\PSoC4/Bootloader.c ****                 case Bootloader_COMMAND_REPORT_SIZE:
 934:.\Generated_Source\PSoC4/Bootloader.c **** 
 935:.\Generated_Source\PSoC4/Bootloader.c ****                     /* btldrData - holds flash array ID sent by host */
 936:.\Generated_Source\PSoC4/Bootloader.c **** 
 937:.\Generated_Source\PSoC4/Bootloader.c ****                     if((Bootloader_COMMUNICATION_STATE_ACTIVE == communicationState) && (pktSize ==
 938:.\Generated_Source\PSoC4/Bootloader.c ****                     {
 939:.\Generated_Source\PSoC4/Bootloader.c ****                         if(btldrData < CY_FLASH_NUMBER_ARRAYS)
 940:.\Generated_Source\PSoC4/Bootloader.c ****                         {
 941:.\Generated_Source\PSoC4/Bootloader.c ****                             uint16 CYDATA startRow;
 942:.\Generated_Source\PSoC4/Bootloader.c ****                             uint8  CYDATA ArrayIdBtlderEnds;
 943:.\Generated_Source\PSoC4/Bootloader.c **** 
 944:.\Generated_Source\PSoC4/Bootloader.c **** 
 945:.\Generated_Source\PSoC4/Bootloader.c ****                             /**********************************************************************
 946:.\Generated_Source\PSoC4/Bootloader.c ****                             * - For the flash array where bootloader application ends, return the f
 947:.\Generated_Source\PSoC4/Bootloader.c ****                             *   full row after the bootloader application.
 948:.\Generated_Source\PSoC4/Bootloader.c ****                             *
 949:.\Generated_Source\PSoC4/Bootloader.c ****                             * - For the fully occupied flash array, the number of rows in array is 
 950:.\Generated_Source\PSoC4/Bootloader.c ****                             *   As there is no space for the bootloadable application in this array
 951:.\Generated_Source\PSoC4/Bootloader.c ****                             *
 952:.\Generated_Source\PSoC4/Bootloader.c ****                             * - For the arrays next to the occupied array, zero is returned.
 953:.\Generated_Source\PSoC4/Bootloader.c ****                             *   The bootloadable application can written from the their beginning.
 954:.\Generated_Source\PSoC4/Bootloader.c ****                             *
 955:.\Generated_Source\PSoC4/Bootloader.c ****                             ***********************************************************************
 956:.\Generated_Source\PSoC4/Bootloader.c ****                             ArrayIdBtlderEnds = (uint8)  (*Bootloader_SizeBytesAccess / CY_FLASH_SI
 957:.\Generated_Source\PSoC4/Bootloader.c **** 
 958:.\Generated_Source\PSoC4/Bootloader.c ****                             if (btldrData == ArrayIdBtlderEnds)
 959:.\Generated_Source\PSoC4/Bootloader.c ****                             {
 960:.\Generated_Source\PSoC4/Bootloader.c ****                                 startRow = (uint16) (*Bootloader_SizeBytesAccess / CY_FLASH_SIZEOF_
 961:.\Generated_Source\PSoC4/Bootloader.c ****                                             Bootloader_NUMBER_OF_ROWS_IN_ARRAY;
 962:.\Generated_Source\PSoC4/Bootloader.c ****                             }
 963:.\Generated_Source\PSoC4/Bootloader.c ****                             else if (btldrData > ArrayIdBtlderEnds)
 964:.\Generated_Source\PSoC4/Bootloader.c ****                             {
 965:.\Generated_Source\PSoC4/Bootloader.c ****                                 startRow = Bootloader_FIRST_ROW_IN_ARRAY;
 966:.\Generated_Source\PSoC4/Bootloader.c ****                             }
 967:.\Generated_Source\PSoC4/Bootloader.c ****                             else /* (btldrData < ArrayIdBtlderEnds) */
 968:.\Generated_Source\PSoC4/Bootloader.c ****                             {
 969:.\Generated_Source\PSoC4/Bootloader.c ****                                 startRow = Bootloader_NUMBER_OF_ROWS_IN_ARRAY;
 970:.\Generated_Source\PSoC4/Bootloader.c ****                             }
 971:.\Generated_Source\PSoC4/Bootloader.c **** 
ARM GAS  C:\Users\kbuchi\AppData\Local\Temp\cc4AaGId.s 			page 20


 972:.\Generated_Source\PSoC4/Bootloader.c ****                             packetBuffer[Bootloader_DATA_ADDR]      = LO8(startRow);
 973:.\Generated_Source\PSoC4/Bootloader.c ****                             packetBuffer[Bootloader_DATA_ADDR + 1u] = HI8(startRow);
 974:.\Generated_Source\PSoC4/Bootloader.c **** 
 975:.\Generated_Source\PSoC4/Bootloader.c ****                             packetBuffer[Bootloader_DATA_ADDR + 2u] =
 976:.\Generated_Source\PSoC4/Bootloader.c ****                                         LO8(Bootloader_NUMBER_OF_ROWS_IN_ARRAY - 1u);
 977:.\Generated_Source\PSoC4/Bootloader.c **** 
 978:.\Generated_Source\PSoC4/Bootloader.c ****                             packetBuffer[Bootloader_DATA_ADDR + 3u] =
 979:.\Generated_Source\PSoC4/Bootloader.c ****                                         HI8(Bootloader_NUMBER_OF_ROWS_IN_ARRAY - 1u);
 980:.\Generated_Source\PSoC4/Bootloader.c **** 
 981:.\Generated_Source\PSoC4/Bootloader.c ****                             rspSize = 4u;
 982:.\Generated_Source\PSoC4/Bootloader.c ****                             ackCode = CYRET_SUCCESS;
 983:.\Generated_Source\PSoC4/Bootloader.c ****                         }
 984:.\Generated_Source\PSoC4/Bootloader.c **** 
 985:.\Generated_Source\PSoC4/Bootloader.c ****                     }
 986:.\Generated_Source\PSoC4/Bootloader.c ****                     break;
 987:.\Generated_Source\PSoC4/Bootloader.c **** 
 988:.\Generated_Source\PSoC4/Bootloader.c ****             #endif  /* (0u != Bootloader_CMD_GET_FLASH_SIZE_AVAIL) */
 989:.\Generated_Source\PSoC4/Bootloader.c **** 
 990:.\Generated_Source\PSoC4/Bootloader.c **** 
 991:.\Generated_Source\PSoC4/Bootloader.c ****             /***************************************************************************
 992:.\Generated_Source\PSoC4/Bootloader.c ****             *   Get application status
 993:.\Generated_Source\PSoC4/Bootloader.c ****             ***************************************************************************/
 994:.\Generated_Source\PSoC4/Bootloader.c ****             #if(0u != Bootloader_DUAL_APP_BOOTLOADER)
 995:.\Generated_Source\PSoC4/Bootloader.c **** 
 996:.\Generated_Source\PSoC4/Bootloader.c ****                 #if(0u != Bootloader_CMD_GET_APP_STATUS_AVAIL)
 997:.\Generated_Source\PSoC4/Bootloader.c **** 
 998:.\Generated_Source\PSoC4/Bootloader.c ****                     case Bootloader_COMMAND_APP_STATUS:
 999:.\Generated_Source\PSoC4/Bootloader.c **** 
1000:.\Generated_Source\PSoC4/Bootloader.c ****                         if((Bootloader_COMMUNICATION_STATE_ACTIVE == communicationState) && (pktSiz
1001:.\Generated_Source\PSoC4/Bootloader.c ****                         {
1002:.\Generated_Source\PSoC4/Bootloader.c **** 
1003:.\Generated_Source\PSoC4/Bootloader.c ****                             packetBuffer[Bootloader_DATA_ADDR] =
1004:.\Generated_Source\PSoC4/Bootloader.c ****                                 (uint8)Bootloader_ValidateBootloadable(btldrData);
1005:.\Generated_Source\PSoC4/Bootloader.c **** 
1006:.\Generated_Source\PSoC4/Bootloader.c ****                             packetBuffer[Bootloader_DATA_ADDR + 1u] =
1007:.\Generated_Source\PSoC4/Bootloader.c ****                                 (uint8) Bootloader_GetMetadata(Bootloader_GET_BTLDB_ACTIVE, btldrDa
1008:.\Generated_Source\PSoC4/Bootloader.c **** 
1009:.\Generated_Source\PSoC4/Bootloader.c ****                             rspSize = 2u;
1010:.\Generated_Source\PSoC4/Bootloader.c ****                             ackCode = CYRET_SUCCESS;
1011:.\Generated_Source\PSoC4/Bootloader.c ****                         }
1012:.\Generated_Source\PSoC4/Bootloader.c ****                         break;
1013:.\Generated_Source\PSoC4/Bootloader.c **** 
1014:.\Generated_Source\PSoC4/Bootloader.c ****                 #endif  /* (0u != Bootloader_CMD_GET_APP_STATUS_AVAIL) */
1015:.\Generated_Source\PSoC4/Bootloader.c **** 
1016:.\Generated_Source\PSoC4/Bootloader.c ****             #endif  /* (0u != Bootloader_DUAL_APP_BOOTLOADER) */
1017:.\Generated_Source\PSoC4/Bootloader.c **** 
1018:.\Generated_Source\PSoC4/Bootloader.c **** 
1019:.\Generated_Source\PSoC4/Bootloader.c ****             /***************************************************************************
1020:.\Generated_Source\PSoC4/Bootloader.c ****             *   Program / Erase row
1021:.\Generated_Source\PSoC4/Bootloader.c ****             ***************************************************************************/
1022:.\Generated_Source\PSoC4/Bootloader.c ****             case Bootloader_COMMAND_PROGRAM:
1023:.\Generated_Source\PSoC4/Bootloader.c **** 
1024:.\Generated_Source\PSoC4/Bootloader.c ****             /* The btldrData variable holds Flash Array ID */
1025:.\Generated_Source\PSoC4/Bootloader.c **** 
1026:.\Generated_Source\PSoC4/Bootloader.c ****         #if (0u != Bootloader_CMD_ERASE_ROW_AVAIL)
1027:.\Generated_Source\PSoC4/Bootloader.c **** 
1028:.\Generated_Source\PSoC4/Bootloader.c ****             case Bootloader_COMMAND_ERASE:
ARM GAS  C:\Users\kbuchi\AppData\Local\Temp\cc4AaGId.s 			page 21


1029:.\Generated_Source\PSoC4/Bootloader.c ****                 if (Bootloader_COMMAND_ERASE == packetBuffer[Bootloader_CMD_ADDR])
1030:.\Generated_Source\PSoC4/Bootloader.c ****                 {
1031:.\Generated_Source\PSoC4/Bootloader.c ****                     if ((Bootloader_COMMUNICATION_STATE_ACTIVE == communicationState) && (pktSize =
1032:.\Generated_Source\PSoC4/Bootloader.c ****                     {
1033:.\Generated_Source\PSoC4/Bootloader.c ****                         #if(!CY_PSOC4)
1034:.\Generated_Source\PSoC4/Bootloader.c ****                             if((btldrData >= Bootloader_FIRST_EE_ARRAYID) &&
1035:.\Generated_Source\PSoC4/Bootloader.c ****                                (btldrData <= Bootloader_LAST_EE_ARRAYID))
1036:.\Generated_Source\PSoC4/Bootloader.c ****                             {
1037:.\Generated_Source\PSoC4/Bootloader.c ****                                 /* Size of EEPROM row */
1038:.\Generated_Source\PSoC4/Bootloader.c ****                                 dataOffset = CY_EEPROM_SIZEOF_ROW;
1039:.\Generated_Source\PSoC4/Bootloader.c ****                             }
1040:.\Generated_Source\PSoC4/Bootloader.c ****                             else
1041:.\Generated_Source\PSoC4/Bootloader.c ****                             {
1042:.\Generated_Source\PSoC4/Bootloader.c ****                                 /* Size of FLASH row (depends on ECC configuration) */
1043:.\Generated_Source\PSoC4/Bootloader.c ****                                 dataOffset = Bootloader_FROW_SIZE;
1044:.\Generated_Source\PSoC4/Bootloader.c ****                             }
1045:.\Generated_Source\PSoC4/Bootloader.c ****                         #else
1046:.\Generated_Source\PSoC4/Bootloader.c ****                             /* Size of FLASH row (no ECC available) */
1047:.\Generated_Source\PSoC4/Bootloader.c ****                             dataOffset = Bootloader_FROW_SIZE;
1048:.\Generated_Source\PSoC4/Bootloader.c ****                         #endif  /* (!CY_PSOC4) */
1049:.\Generated_Source\PSoC4/Bootloader.c **** 
1050:.\Generated_Source\PSoC4/Bootloader.c ****                         #if(CY_PSOC3)
1051:.\Generated_Source\PSoC4/Bootloader.c ****                             (void) memset(dataBuffer, (char8) 0, (int16) dataOffset);
1052:.\Generated_Source\PSoC4/Bootloader.c ****                         #else
1053:.\Generated_Source\PSoC4/Bootloader.c ****                             (void) memset(dataBuffer, 0, (uint32) dataOffset);
1054:.\Generated_Source\PSoC4/Bootloader.c ****                         #endif  /* (CY_PSOC3) */
1055:.\Generated_Source\PSoC4/Bootloader.c ****                     }
1056:.\Generated_Source\PSoC4/Bootloader.c ****                     else
1057:.\Generated_Source\PSoC4/Bootloader.c ****                     {
1058:.\Generated_Source\PSoC4/Bootloader.c ****                         break;
1059:.\Generated_Source\PSoC4/Bootloader.c ****                     }
1060:.\Generated_Source\PSoC4/Bootloader.c ****                 }
1061:.\Generated_Source\PSoC4/Bootloader.c **** 
1062:.\Generated_Source\PSoC4/Bootloader.c ****         #endif  /* (0u != Bootloader_CMD_ERASE_ROW_AVAIL) */
1063:.\Generated_Source\PSoC4/Bootloader.c **** 
1064:.\Generated_Source\PSoC4/Bootloader.c **** 
1065:.\Generated_Source\PSoC4/Bootloader.c ****                 if((Bootloader_COMMUNICATION_STATE_ACTIVE == communicationState) && (pktSize >= 3u)
1066:.\Generated_Source\PSoC4/Bootloader.c ****                 {
1067:.\Generated_Source\PSoC4/Bootloader.c **** 
1068:.\Generated_Source\PSoC4/Bootloader.c ****                     /* The command may be sent along with the last block of data, to program the ro
1069:.\Generated_Source\PSoC4/Bootloader.c ****                     #if(CY_PSOC3)
1070:.\Generated_Source\PSoC4/Bootloader.c ****                         (void) memcpy(&dataBuffer[dataOffset],
1071:.\Generated_Source\PSoC4/Bootloader.c ****                                       &packetBuffer[Bootloader_DATA_ADDR + 3u],
1072:.\Generated_Source\PSoC4/Bootloader.c ****                                       (int16) pktSize - 3);
1073:.\Generated_Source\PSoC4/Bootloader.c ****                     #else
1074:.\Generated_Source\PSoC4/Bootloader.c ****                         (void) memcpy(&dataBuffer[dataOffset],
1075:.\Generated_Source\PSoC4/Bootloader.c ****                                       &packetBuffer[Bootloader_DATA_ADDR + 3u],
1076:.\Generated_Source\PSoC4/Bootloader.c ****                                       (uint32) pktSize - 3u);
1077:.\Generated_Source\PSoC4/Bootloader.c ****                     #endif  /* (CY_PSOC3) */
1078:.\Generated_Source\PSoC4/Bootloader.c **** 
1079:.\Generated_Source\PSoC4/Bootloader.c ****                     dataOffset += (pktSize - 3u);
1080:.\Generated_Source\PSoC4/Bootloader.c **** 
1081:.\Generated_Source\PSoC4/Bootloader.c ****                     #if(!CY_PSOC4)
1082:.\Generated_Source\PSoC4/Bootloader.c ****                         if((btldrData >= Bootloader_FIRST_EE_ARRAYID) &&
1083:.\Generated_Source\PSoC4/Bootloader.c ****                            (btldrData <= Bootloader_LAST_EE_ARRAYID))
1084:.\Generated_Source\PSoC4/Bootloader.c ****                         {
1085:.\Generated_Source\PSoC4/Bootloader.c **** 
ARM GAS  C:\Users\kbuchi\AppData\Local\Temp\cc4AaGId.s 			page 22


1086:.\Generated_Source\PSoC4/Bootloader.c ****                             CyEEPROM_Start();
1087:.\Generated_Source\PSoC4/Bootloader.c **** 
1088:.\Generated_Source\PSoC4/Bootloader.c ****                             /* Size of EEPROM row */
1089:.\Generated_Source\PSoC4/Bootloader.c ****                             pktSize = CY_EEPROM_SIZEOF_ROW;
1090:.\Generated_Source\PSoC4/Bootloader.c ****                         }
1091:.\Generated_Source\PSoC4/Bootloader.c ****                         else
1092:.\Generated_Source\PSoC4/Bootloader.c ****                         {
1093:.\Generated_Source\PSoC4/Bootloader.c ****                             /* Size of FLASH row (depends on ECC configuration) */
1094:.\Generated_Source\PSoC4/Bootloader.c ****                             pktSize = Bootloader_FROW_SIZE;
1095:.\Generated_Source\PSoC4/Bootloader.c ****                         }
1096:.\Generated_Source\PSoC4/Bootloader.c ****                     #else
1097:.\Generated_Source\PSoC4/Bootloader.c ****                         /* Size of FLASH row (no ECC available) */
1098:.\Generated_Source\PSoC4/Bootloader.c ****                         pktSize = Bootloader_FROW_SIZE;
1099:.\Generated_Source\PSoC4/Bootloader.c ****                     #endif  /* (!CY_PSOC4) */
1100:.\Generated_Source\PSoC4/Bootloader.c **** 
1101:.\Generated_Source\PSoC4/Bootloader.c **** 
1102:.\Generated_Source\PSoC4/Bootloader.c ****                     /* Check if we have all data to program */
1103:.\Generated_Source\PSoC4/Bootloader.c ****                     if(dataOffset == pktSize)
1104:.\Generated_Source\PSoC4/Bootloader.c ****                     {
1105:.\Generated_Source\PSoC4/Bootloader.c ****                         uint16 row;
1106:.\Generated_Source\PSoC4/Bootloader.c ****                         uint16 firstRow;
1107:.\Generated_Source\PSoC4/Bootloader.c **** 
1108:.\Generated_Source\PSoC4/Bootloader.c ****                         /* Get FLASH/EEPROM row number inside of the array */
1109:.\Generated_Source\PSoC4/Bootloader.c ****                         dataOffset = ((uint16)((uint16)packetBuffer[Bootloader_DATA_ADDR + 2u] << 8
1110:.\Generated_Source\PSoC4/Bootloader.c ****                                               packetBuffer[Bootloader_DATA_ADDR + 1u];
1111:.\Generated_Source\PSoC4/Bootloader.c **** 
1112:.\Generated_Source\PSoC4/Bootloader.c **** 
1113:.\Generated_Source\PSoC4/Bootloader.c ****                         /* Metadata section resides in Flash (cannot be in EEPROM). */
1114:.\Generated_Source\PSoC4/Bootloader.c ****                         #if(!CY_PSOC4)
1115:.\Generated_Source\PSoC4/Bootloader.c ****                             if(btldrData <= Bootloader_LAST_FLASH_ARRAYID)
1116:.\Generated_Source\PSoC4/Bootloader.c ****                             {
1117:.\Generated_Source\PSoC4/Bootloader.c ****                         #endif  /* (!CY_PSOC4) */
1118:.\Generated_Source\PSoC4/Bootloader.c **** 
1119:.\Generated_Source\PSoC4/Bootloader.c **** 
1120:.\Generated_Source\PSoC4/Bootloader.c ****                         /* btldrData  - holds flash array Id sent by host */
1121:.\Generated_Source\PSoC4/Bootloader.c ****                         /* dataOffset - holds flash row Id sent by host   */
1122:.\Generated_Source\PSoC4/Bootloader.c ****                         row = (uint16)(btldrData * Bootloader_NUMBER_OF_ROWS_IN_ARRAY) + dataOffset
1123:.\Generated_Source\PSoC4/Bootloader.c **** 
1124:.\Generated_Source\PSoC4/Bootloader.c **** 
1125:.\Generated_Source\PSoC4/Bootloader.c ****                         /**************************************************************************
1126:.\Generated_Source\PSoC4/Bootloader.c ****                         * Refuse to write to the row within range of the bootloader application
1127:.\Generated_Source\PSoC4/Bootloader.c ****                         ***************************************************************************
1128:.\Generated_Source\PSoC4/Bootloader.c **** 
1129:.\Generated_Source\PSoC4/Bootloader.c ****                         /* First empty flash row after bootloader application */
1130:.\Generated_Source\PSoC4/Bootloader.c ****                         firstRow = (uint16) (*Bootloader_SizeBytesAccess / CYDEV_FLS_ROW_SIZE);
1131:.\Generated_Source\PSoC4/Bootloader.c ****                         if ((*Bootloader_SizeBytesAccess % CYDEV_FLS_ROW_SIZE) != 0u)
1132:.\Generated_Source\PSoC4/Bootloader.c ****                         {
1133:.\Generated_Source\PSoC4/Bootloader.c ****                             firstRow++;
1134:.\Generated_Source\PSoC4/Bootloader.c ****                         }
1135:.\Generated_Source\PSoC4/Bootloader.c **** 
1136:.\Generated_Source\PSoC4/Bootloader.c ****                         /* Check to see if the row to program will not corrupt the bootloader appli
1137:.\Generated_Source\PSoC4/Bootloader.c ****                         if(row < firstRow)
1138:.\Generated_Source\PSoC4/Bootloader.c ****                         {
1139:.\Generated_Source\PSoC4/Bootloader.c ****                             ackCode = Bootloader_ERR_ROW;
1140:.\Generated_Source\PSoC4/Bootloader.c ****                             dataOffset = 0u;
1141:.\Generated_Source\PSoC4/Bootloader.c ****                             break;
1142:.\Generated_Source\PSoC4/Bootloader.c ****                         }
ARM GAS  C:\Users\kbuchi\AppData\Local\Temp\cc4AaGId.s 			page 23


1143:.\Generated_Source\PSoC4/Bootloader.c **** 
1144:.\Generated_Source\PSoC4/Bootloader.c **** 
1145:.\Generated_Source\PSoC4/Bootloader.c ****                         #if(0u != Bootloader_DUAL_APP_BOOTLOADER)
1146:.\Generated_Source\PSoC4/Bootloader.c **** 
1147:.\Generated_Source\PSoC4/Bootloader.c ****                             if(Bootloader_activeApp < Bootloader_MD_BTLDB_ACTIVE_NONE)
1148:.\Generated_Source\PSoC4/Bootloader.c ****                             {
1149:.\Generated_Source\PSoC4/Bootloader.c ****                                 uint16 lastRow;
1150:.\Generated_Source\PSoC4/Bootloader.c **** 
1151:.\Generated_Source\PSoC4/Bootloader.c **** 
1152:.\Generated_Source\PSoC4/Bootloader.c ****                                 /******************************************************************
1153:.\Generated_Source\PSoC4/Bootloader.c ****                                 * For the first bootloadable application gets the last flash row oc
1154:.\Generated_Source\PSoC4/Bootloader.c ****                                 * the bootloader application image:
1155:.\Generated_Source\PSoC4/Bootloader.c ****                                 *  ----------------------------------------------------------------
1156:.\Generated_Source\PSoC4/Bootloader.c ****                                 * | Bootloader   | Bootloadable # 1 |     | Bootloadable # 2 |     
1157:.\Generated_Source\PSoC4/Bootloader.c ****                                 *  ----------------------------------------------------------------
1158:.\Generated_Source\PSoC4/Bootloader.c ****                                 * |<--firstRow---|>
1159:.\Generated_Source\PSoC4/Bootloader.c ****                                 *
1160:.\Generated_Source\PSoC4/Bootloader.c ****                                 * For the second bootloadable application gets the last flash row o
1161:.\Generated_Source\PSoC4/Bootloader.c ****                                 * the first bootloadable application:
1162:.\Generated_Source\PSoC4/Bootloader.c ****                                 *  ----------------------------------------------------------------
1163:.\Generated_Source\PSoC4/Bootloader.c ****                                 * | Bootloader   | Bootloadable # 1 |     | Bootloadable # 2 |     
1164:.\Generated_Source\PSoC4/Bootloader.c ****                                 *  ----------------------------------------------------------------
1165:.\Generated_Source\PSoC4/Bootloader.c ****                                 * |<-------------firstRow-----------------|>
1166:.\Generated_Source\PSoC4/Bootloader.c ****                                 *
1167:.\Generated_Source\PSoC4/Bootloader.c ****                                 * Incremented by 1 to get the first available row.
1168:.\Generated_Source\PSoC4/Bootloader.c ****                                 *
1169:.\Generated_Source\PSoC4/Bootloader.c ****                                 * Note: M1 and M2 stands for the metadata # 1 and metadata # 2, met
1170:.\Generated_Source\PSoC4/Bootloader.c ****                                 * sections for the 1st and 2nd bootloadable applications.
1171:.\Generated_Source\PSoC4/Bootloader.c ****                                 *******************************************************************
1172:.\Generated_Source\PSoC4/Bootloader.c ****                                 firstRow = (uint16) 1u +
1173:.\Generated_Source\PSoC4/Bootloader.c ****                                     (uint16) Bootloader_GetMetadata(Bootloader_GET_BTLDR_LAST_ROW,
1174:.\Generated_Source\PSoC4/Bootloader.c ****                                                                           Bootloader_activeApp);
1175:.\Generated_Source\PSoC4/Bootloader.c **** 
1176:.\Generated_Source\PSoC4/Bootloader.c **** 
1177:.\Generated_Source\PSoC4/Bootloader.c ****                                 /******************************************************************
1178:.\Generated_Source\PSoC4/Bootloader.c ****                                 * The number of flash rows available for the both bootloadable appl
1179:.\Generated_Source\PSoC4/Bootloader.c ****                                 *
1180:.\Generated_Source\PSoC4/Bootloader.c ****                                 * First bootloadable application is active:
1181:.\Generated_Source\PSoC4/Bootloader.c ****                                 *  ----------------------------------------------------------------
1182:.\Generated_Source\PSoC4/Bootloader.c ****                                 * | Bootloader   | Bootloadable # 1 |     | Bootloadable # 2 |     
1183:.\Generated_Source\PSoC4/Bootloader.c ****                                 *  ----------------------------------------------------------------
1184:.\Generated_Source\PSoC4/Bootloader.c ****                                 *                |<-------------------lastRow -------------------->
1185:.\Generated_Source\PSoC4/Bootloader.c ****                                 *
1186:.\Generated_Source\PSoC4/Bootloader.c ****                                 * Second bootloadable application is active:
1187:.\Generated_Source\PSoC4/Bootloader.c ****                                 *  ----------------------------------------------------------------
1188:.\Generated_Source\PSoC4/Bootloader.c ****                                 * | Bootloader   | Bootloadable # 1 |     | Bootloadable # 2 |     
1189:.\Generated_Source\PSoC4/Bootloader.c ****                                 *  ----------------------------------------------------------------
1190:.\Generated_Source\PSoC4/Bootloader.c ****                                 *                                         |<-------lastRow-------->
1191:.\Generated_Source\PSoC4/Bootloader.c ****                                 *******************************************************************
1192:.\Generated_Source\PSoC4/Bootloader.c ****                                 lastRow = (uint16)(CY_FLASH_NUMBER_ROWS -
1193:.\Generated_Source\PSoC4/Bootloader.c ****                                                     Bootloader_NUMBER_OF_METADATA_ROWS -
1194:.\Generated_Source\PSoC4/Bootloader.c ****                                                     firstRow);
1195:.\Generated_Source\PSoC4/Bootloader.c **** 
1196:.\Generated_Source\PSoC4/Bootloader.c **** 
1197:.\Generated_Source\PSoC4/Bootloader.c ****                                 /******************************************************************
1198:.\Generated_Source\PSoC4/Bootloader.c ****                                 * The number of flash rows available for the active bootloadable ap
1199:.\Generated_Source\PSoC4/Bootloader.c ****                                 *
ARM GAS  C:\Users\kbuchi\AppData\Local\Temp\cc4AaGId.s 			page 24


1200:.\Generated_Source\PSoC4/Bootloader.c ****                                 * First bootloadable application is active: the number of flash row
1201:.\Generated_Source\PSoC4/Bootloader.c ****                                 * for the both bootloadable applications should be divided by 2 - 2
1202:.\Generated_Source\PSoC4/Bootloader.c ****                                 * applications should fit there.
1203:.\Generated_Source\PSoC4/Bootloader.c ****                                 *
1204:.\Generated_Source\PSoC4/Bootloader.c ****                                 * Second bootloadable application is active: the number of flash ro
1205:.\Generated_Source\PSoC4/Bootloader.c ****                                 * for the both bootloadable applications should be divided by 1 - 1
1206:.\Generated_Source\PSoC4/Bootloader.c ****                                 * application should fit there.
1207:.\Generated_Source\PSoC4/Bootloader.c ****                                 *******************************************************************
1208:.\Generated_Source\PSoC4/Bootloader.c ****                                 lastRow = lastRow / (Bootloader_NUMBER_OF_BTLDBLE_APPS -
1209:.\Generated_Source\PSoC4/Bootloader.c ****                                                 Bootloader_activeApp);
1210:.\Generated_Source\PSoC4/Bootloader.c **** 
1211:.\Generated_Source\PSoC4/Bootloader.c **** 
1212:.\Generated_Source\PSoC4/Bootloader.c ****                                 /******************************************************************
1213:.\Generated_Source\PSoC4/Bootloader.c ****                                 * The last row equals to the first row plus the number of rows avai
1214:.\Generated_Source\PSoC4/Bootloader.c ****                                 * the each bootloadable application. That gives the flash row numbe
1215:.\Generated_Source\PSoC4/Bootloader.c ****                                 * beyond the valid range, so we subtract 1.
1216:.\Generated_Source\PSoC4/Bootloader.c ****                                 *
1217:.\Generated_Source\PSoC4/Bootloader.c ****                                 * First bootloadable application is active:
1218:.\Generated_Source\PSoC4/Bootloader.c ****                                 *  ----------------------------------------------------------------
1219:.\Generated_Source\PSoC4/Bootloader.c ****                                 * | Bootloader   | Bootloadable # 1 |     | Bootloadable # 2 |     
1220:.\Generated_Source\PSoC4/Bootloader.c ****                                 *  ----------------------------------------------------------------
1221:.\Generated_Source\PSoC4/Bootloader.c ****                                 * |<----------------lastRow ------------->|
1222:.\Generated_Source\PSoC4/Bootloader.c ****                                 *
1223:.\Generated_Source\PSoC4/Bootloader.c ****                                 * Second bootloadable application is active:
1224:.\Generated_Source\PSoC4/Bootloader.c ****                                 *  ----------------------------------------------------------------
1225:.\Generated_Source\PSoC4/Bootloader.c ****                                 * | Bootloader   | Bootloadable # 1 |     | Bootloadable # 2 |     
1226:.\Generated_Source\PSoC4/Bootloader.c ****                                 *  ----------------------------------------------------------------
1227:.\Generated_Source\PSoC4/Bootloader.c ****                                 * |<-----------------------------lastRow-------------------------->
1228:.\Generated_Source\PSoC4/Bootloader.c ****                                 *******************************************************************
1229:.\Generated_Source\PSoC4/Bootloader.c ****                                 lastRow = (firstRow + lastRow) - 1u;
1230:.\Generated_Source\PSoC4/Bootloader.c **** 
1231:.\Generated_Source\PSoC4/Bootloader.c **** 
1232:.\Generated_Source\PSoC4/Bootloader.c ****                                 /******************************************************************
1233:.\Generated_Source\PSoC4/Bootloader.c ****                                 * 1. Refuse to write row within the range of the active application
1234:.\Generated_Source\PSoC4/Bootloader.c ****                                 *
1235:.\Generated_Source\PSoC4/Bootloader.c ****                                 *  First bootloadable application is active:
1236:.\Generated_Source\PSoC4/Bootloader.c ****                                 *   ---------------------------------------------------------------
1237:.\Generated_Source\PSoC4/Bootloader.c ****                                 *  | Bootloader   | Bootloadable # 1 |     | Bootloadable # 2 |    
1238:.\Generated_Source\PSoC4/Bootloader.c ****                                 *   ---------------------------------------------------------------
1239:.\Generated_Source\PSoC4/Bootloader.c ****                                 *  |<----------------lastRow ------------->|
1240:.\Generated_Source\PSoC4/Bootloader.c ****                                 *  |<--firstRow---|>
1241:.\Generated_Source\PSoC4/Bootloader.c ****                                 *                 |<-------protected------>|
1242:.\Generated_Source\PSoC4/Bootloader.c ****                                 *
1243:.\Generated_Source\PSoC4/Bootloader.c ****                                 *  Second bootloadable application is active:
1244:.\Generated_Source\PSoC4/Bootloader.c ****                                 *   ---------------------------------------------------------------
1245:.\Generated_Source\PSoC4/Bootloader.c ****                                 *  | Bootloader   | Bootloadable # 1 |     | Bootloadable # 2 |    
1246:.\Generated_Source\PSoC4/Bootloader.c ****                                 *   ---------------------------------------------------------------
1247:.\Generated_Source\PSoC4/Bootloader.c ****                                 *  |<-------------firstRow-----------------|>
1248:.\Generated_Source\PSoC4/Bootloader.c ****                                 *  |<-----------------------------lastRow--------------------------
1249:.\Generated_Source\PSoC4/Bootloader.c ****                                 *                                          |<-------protected------
1250:.\Generated_Source\PSoC4/Bootloader.c ****                                 *
1251:.\Generated_Source\PSoC4/Bootloader.c ****                                 * 2. Refuse to write to the row that contains metadata of the activ
1252:.\Generated_Source\PSoC4/Bootloader.c ****                                 *    bootloadable application.
1253:.\Generated_Source\PSoC4/Bootloader.c ****                                 *
1254:.\Generated_Source\PSoC4/Bootloader.c ****                                 *******************************************************************
1255:.\Generated_Source\PSoC4/Bootloader.c ****                                 if(((row >= firstRow) && (row <= lastRow)) ||
1256:.\Generated_Source\PSoC4/Bootloader.c ****                                    ((btldrData == Bootloader_MD_FLASH_ARRAY_NUM) &&
ARM GAS  C:\Users\kbuchi\AppData\Local\Temp\cc4AaGId.s 			page 25


1257:.\Generated_Source\PSoC4/Bootloader.c ****                                    (dataOffset == Bootloader_MD_ROW_NUM(Bootloader_activeApp))))
1258:.\Generated_Source\PSoC4/Bootloader.c ****                                 {
1259:.\Generated_Source\PSoC4/Bootloader.c ****                                     ackCode = Bootloader_ERR_ACTIVE;
1260:.\Generated_Source\PSoC4/Bootloader.c ****                                     dataOffset = 0u;
1261:.\Generated_Source\PSoC4/Bootloader.c ****                                     break;
1262:.\Generated_Source\PSoC4/Bootloader.c ****                                 }
1263:.\Generated_Source\PSoC4/Bootloader.c ****                             }
1264:.\Generated_Source\PSoC4/Bootloader.c **** 
1265:.\Generated_Source\PSoC4/Bootloader.c ****                         #endif  /* (0u != Bootloader_DUAL_APP_BOOTLOADER) */
1266:.\Generated_Source\PSoC4/Bootloader.c **** 
1267:.\Generated_Source\PSoC4/Bootloader.c **** 
1268:.\Generated_Source\PSoC4/Bootloader.c **** 
1269:.\Generated_Source\PSoC4/Bootloader.c ****                         /**************************************************************************
1270:.\Generated_Source\PSoC4/Bootloader.c ****                         * Clear row that contains the metadata, when 'Fast bootloadable application
1271:.\Generated_Source\PSoC4/Bootloader.c ****                         * validation' option is enabled.
1272:.\Generated_Source\PSoC4/Bootloader.c ****                         *
1273:.\Generated_Source\PSoC4/Bootloader.c ****                         * If 'Fast bootloadable application validation' option is enabled, the
1274:.\Generated_Source\PSoC4/Bootloader.c ****                         * bootloader only computes the checksum the first time and assumes that it
1275:.\Generated_Source\PSoC4/Bootloader.c ****                         * remains valid in each future startup. The metadata row is cleared because
1276:.\Generated_Source\PSoC4/Bootloader.c ****                         * bootloadable application might become corrupted during update, while
1277:.\Generated_Source\PSoC4/Bootloader.c ****                         * 'Bootloadable Application Verification Status' field will still report th
1278:.\Generated_Source\PSoC4/Bootloader.c ****                         * application is valid.
1279:.\Generated_Source\PSoC4/Bootloader.c ****                         ***************************************************************************
1280:.\Generated_Source\PSoC4/Bootloader.c ****                         #if(0u != Bootloader_FAST_APP_VALIDATION)
1281:.\Generated_Source\PSoC4/Bootloader.c **** 
1282:.\Generated_Source\PSoC4/Bootloader.c ****                             if(0u == clearedMetaData)
1283:.\Generated_Source\PSoC4/Bootloader.c ****                             {
1284:.\Generated_Source\PSoC4/Bootloader.c ****                                 /* Metadata section must be filled with zeros */
1285:.\Generated_Source\PSoC4/Bootloader.c **** 
1286:.\Generated_Source\PSoC4/Bootloader.c ****                                 uint8 erase[Bootloader_FROW_SIZE];
1287:.\Generated_Source\PSoC4/Bootloader.c ****                                 uint8 Bootloader_notActiveApp;
1288:.\Generated_Source\PSoC4/Bootloader.c **** 
1289:.\Generated_Source\PSoC4/Bootloader.c **** 
1290:.\Generated_Source\PSoC4/Bootloader.c ****                                 #if(CY_PSOC3)
1291:.\Generated_Source\PSoC4/Bootloader.c ****                                     (void) memset(erase, (char8) 0, (int16) Bootloader_FROW_SIZE);
1292:.\Generated_Source\PSoC4/Bootloader.c ****                                 #else
1293:.\Generated_Source\PSoC4/Bootloader.c ****                                     (void) memset(erase, 0, Bootloader_FROW_SIZE);
1294:.\Generated_Source\PSoC4/Bootloader.c ****                                 #endif  /* (CY_PSOC3) */
1295:.\Generated_Source\PSoC4/Bootloader.c **** 
1296:.\Generated_Source\PSoC4/Bootloader.c **** 
1297:.\Generated_Source\PSoC4/Bootloader.c ****                                 #if(0u != Bootloader_DUAL_APP_BOOTLOADER)
1298:.\Generated_Source\PSoC4/Bootloader.c ****                                     if (Bootloader_MD_BTLDB_ACTIVE_0 == Bootloader_activeApp)
1299:.\Generated_Source\PSoC4/Bootloader.c ****                                     {
1300:.\Generated_Source\PSoC4/Bootloader.c ****                                         Bootloader_notActiveApp = Bootloader_MD_BTLDB_ACTIVE_1;
1301:.\Generated_Source\PSoC4/Bootloader.c ****                                     }
1302:.\Generated_Source\PSoC4/Bootloader.c ****                                     else
1303:.\Generated_Source\PSoC4/Bootloader.c ****                                     {
1304:.\Generated_Source\PSoC4/Bootloader.c ****                                         Bootloader_notActiveApp = Bootloader_MD_BTLDB_ACTIVE_0;
1305:.\Generated_Source\PSoC4/Bootloader.c ****                                     }
1306:.\Generated_Source\PSoC4/Bootloader.c ****                                 #else
1307:.\Generated_Source\PSoC4/Bootloader.c ****                                     Bootloader_notActiveApp = Bootloader_MD_BTLDB_ACTIVE_0;
1308:.\Generated_Source\PSoC4/Bootloader.c ****                                 #endif /* (0u != Bootloader_DUAL_APP_BOOTLOADER) */
1309:.\Generated_Source\PSoC4/Bootloader.c **** 
1310:.\Generated_Source\PSoC4/Bootloader.c **** 
1311:.\Generated_Source\PSoC4/Bootloader.c ****                                 #if(CY_PSOC4)
1312:.\Generated_Source\PSoC4/Bootloader.c ****                                     (void) CySysFlashWriteRow(
1313:.\Generated_Source\PSoC4/Bootloader.c ****                                             Bootloader_MD_ROW_NUM(Bootloader_notActiveApp),
ARM GAS  C:\Users\kbuchi\AppData\Local\Temp\cc4AaGId.s 			page 26


1314:.\Generated_Source\PSoC4/Bootloader.c ****                                             erase);
1315:.\Generated_Source\PSoC4/Bootloader.c ****                                 #else
1316:.\Generated_Source\PSoC4/Bootloader.c ****                                     (void) CyWriteRowFull(
1317:.\Generated_Source\PSoC4/Bootloader.c ****                                             (uint8)  Bootloader_MD_FLASH_ARRAY_NUM,
1318:.\Generated_Source\PSoC4/Bootloader.c ****                                             (uint16) Bootloader_MD_ROW_NUM(Bootloader_notActiveApp)
1319:.\Generated_Source\PSoC4/Bootloader.c ****                                             erase,
1320:.\Generated_Source\PSoC4/Bootloader.c ****                                             Bootloader_FROW_SIZE);
1321:.\Generated_Source\PSoC4/Bootloader.c ****                                 #endif  /* (CY_PSOC4) */
1322:.\Generated_Source\PSoC4/Bootloader.c **** 
1323:.\Generated_Source\PSoC4/Bootloader.c ****                                 /* PSoC 5: Do not care about flushing the cache as flash row has be
1324:.\Generated_Source\PSoC4/Bootloader.c **** 
1325:.\Generated_Source\PSoC4/Bootloader.c ****                                 /* Set up flag that metadata was cleared */
1326:.\Generated_Source\PSoC4/Bootloader.c ****                                 clearedMetaData = 1u;
1327:.\Generated_Source\PSoC4/Bootloader.c ****                             }
1328:.\Generated_Source\PSoC4/Bootloader.c **** 
1329:.\Generated_Source\PSoC4/Bootloader.c ****                         #endif  /* (0u != Bootloader_FAST_APP_VALIDATION) */
1330:.\Generated_Source\PSoC4/Bootloader.c **** 
1331:.\Generated_Source\PSoC4/Bootloader.c **** 
1332:.\Generated_Source\PSoC4/Bootloader.c ****                         #if(!CY_PSOC4)
1333:.\Generated_Source\PSoC4/Bootloader.c ****                             }   /* (btldrData <= Bootloader_LAST_FLASH_ARRAYID) */
1334:.\Generated_Source\PSoC4/Bootloader.c ****                         #endif  /* (!CY_PSOC4) */
1335:.\Generated_Source\PSoC4/Bootloader.c **** 
1336:.\Generated_Source\PSoC4/Bootloader.c **** 
1337:.\Generated_Source\PSoC4/Bootloader.c ****                         #if(CY_PSOC4)
1338:.\Generated_Source\PSoC4/Bootloader.c ****                             ackCode = (CYRET_SUCCESS != CySysFlashWriteRow((uint32) row, dataBuffer
1339:.\Generated_Source\PSoC4/Bootloader.c ****                                 ? Bootloader_ERR_ROW \
1340:.\Generated_Source\PSoC4/Bootloader.c ****                                 : CYRET_SUCCESS;
1341:.\Generated_Source\PSoC4/Bootloader.c ****                         #else
1342:.\Generated_Source\PSoC4/Bootloader.c ****                             ackCode = (CYRET_SUCCESS != CyWriteRowFull(btldrData, dataOffset, dataB
1343:.\Generated_Source\PSoC4/Bootloader.c ****                                 ? Bootloader_ERR_ROW \
1344:.\Generated_Source\PSoC4/Bootloader.c ****                                 : CYRET_SUCCESS;
1345:.\Generated_Source\PSoC4/Bootloader.c ****                         #endif  /* (CY_PSOC4) */
1346:.\Generated_Source\PSoC4/Bootloader.c **** 
1347:.\Generated_Source\PSoC4/Bootloader.c **** 
1348:.\Generated_Source\PSoC4/Bootloader.c ****                         #if(CY_PSOC5)
1349:.\Generated_Source\PSoC4/Bootloader.c ****                             /**********************************************************************
1350:.\Generated_Source\PSoC4/Bootloader.c ****                             * When writing Flash, data in the instruction cache can become stale.
1351:.\Generated_Source\PSoC4/Bootloader.c ****                             * Therefore, the cache data does not correlate to the data just written
1352:.\Generated_Source\PSoC4/Bootloader.c ****                             * Flash. A call to CyFlushCache() is required to invalidate the data in
1353:.\Generated_Source\PSoC4/Bootloader.c ****                             * cache and force fresh information to be loaded from Flash.
1354:.\Generated_Source\PSoC4/Bootloader.c ****                             ***********************************************************************
1355:.\Generated_Source\PSoC4/Bootloader.c ****                             CyFlushCache();
1356:.\Generated_Source\PSoC4/Bootloader.c ****                         #endif /* (CY_PSOC5) */
1357:.\Generated_Source\PSoC4/Bootloader.c **** 
1358:.\Generated_Source\PSoC4/Bootloader.c ****                     }
1359:.\Generated_Source\PSoC4/Bootloader.c ****                     else
1360:.\Generated_Source\PSoC4/Bootloader.c ****                     {
1361:.\Generated_Source\PSoC4/Bootloader.c ****                         ackCode = Bootloader_ERR_LENGTH;
1362:.\Generated_Source\PSoC4/Bootloader.c ****                     }
1363:.\Generated_Source\PSoC4/Bootloader.c **** 
1364:.\Generated_Source\PSoC4/Bootloader.c ****                     dataOffset = 0u;
1365:.\Generated_Source\PSoC4/Bootloader.c ****                 }
1366:.\Generated_Source\PSoC4/Bootloader.c ****                 break;
1367:.\Generated_Source\PSoC4/Bootloader.c **** 
1368:.\Generated_Source\PSoC4/Bootloader.c **** 
1369:.\Generated_Source\PSoC4/Bootloader.c ****             /***************************************************************************
1370:.\Generated_Source\PSoC4/Bootloader.c ****             *   Sync bootloader
ARM GAS  C:\Users\kbuchi\AppData\Local\Temp\cc4AaGId.s 			page 27


1371:.\Generated_Source\PSoC4/Bootloader.c ****             ***************************************************************************/
1372:.\Generated_Source\PSoC4/Bootloader.c ****             #if(0u != Bootloader_CMD_SYNC_BOOTLOADER_AVAIL)
1373:.\Generated_Source\PSoC4/Bootloader.c **** 
1374:.\Generated_Source\PSoC4/Bootloader.c ****             case Bootloader_COMMAND_SYNC:
1375:.\Generated_Source\PSoC4/Bootloader.c **** 
1376:.\Generated_Source\PSoC4/Bootloader.c ****                 if(Bootloader_COMMUNICATION_STATE_ACTIVE == communicationState)
1377:.\Generated_Source\PSoC4/Bootloader.c ****                 {
1378:.\Generated_Source\PSoC4/Bootloader.c ****                     /* If something failed the host would send this command to reset the bootloader
1379:.\Generated_Source\PSoC4/Bootloader.c ****                     dataOffset = 0u;
1380:.\Generated_Source\PSoC4/Bootloader.c **** 
1381:.\Generated_Source\PSoC4/Bootloader.c ****                     /* Don't acknowledge the packet, just get ready to accept the next one */
1382:.\Generated_Source\PSoC4/Bootloader.c ****                     continue;
1383:.\Generated_Source\PSoC4/Bootloader.c ****                 }
1384:.\Generated_Source\PSoC4/Bootloader.c ****                 break;
1385:.\Generated_Source\PSoC4/Bootloader.c **** 
1386:.\Generated_Source\PSoC4/Bootloader.c ****             #endif  /* (0u != Bootloader_CMD_SYNC_BOOTLOADER_AVAIL) */
1387:.\Generated_Source\PSoC4/Bootloader.c **** 
1388:.\Generated_Source\PSoC4/Bootloader.c **** 
1389:.\Generated_Source\PSoC4/Bootloader.c ****             /***************************************************************************
1390:.\Generated_Source\PSoC4/Bootloader.c ****             *   Set an active application
1391:.\Generated_Source\PSoC4/Bootloader.c ****             ***************************************************************************/
1392:.\Generated_Source\PSoC4/Bootloader.c ****             #if(0u != Bootloader_DUAL_APP_BOOTLOADER)
1393:.\Generated_Source\PSoC4/Bootloader.c **** 
1394:.\Generated_Source\PSoC4/Bootloader.c ****                 case Bootloader_COMMAND_APP_ACTIVE:
1395:.\Generated_Source\PSoC4/Bootloader.c **** 
1396:.\Generated_Source\PSoC4/Bootloader.c ****                     if((Bootloader_COMMUNICATION_STATE_ACTIVE == communicationState) && (pktSize ==
1397:.\Generated_Source\PSoC4/Bootloader.c ****                     {
1398:.\Generated_Source\PSoC4/Bootloader.c ****                         if(CYRET_SUCCESS == Bootloader_ValidateBootloadable(btldrData))
1399:.\Generated_Source\PSoC4/Bootloader.c ****                         {
1400:.\Generated_Source\PSoC4/Bootloader.c ****                             uint8 CYDATA idx;
1401:.\Generated_Source\PSoC4/Bootloader.c **** 
1402:.\Generated_Source\PSoC4/Bootloader.c ****                             for(idx = 0u; idx < Bootloader_MAX_NUM_OF_BTLDB; idx++)
1403:.\Generated_Source\PSoC4/Bootloader.c ****                             {
1404:.\Generated_Source\PSoC4/Bootloader.c ****                                 Bootloader_SetFlashByte((uint32) Bootloader_MD_BTLDB_ACTIVE_OFFSET(
1405:.\Generated_Source\PSoC4/Bootloader.c ****                                                               (uint8 )(idx == btldrData));
1406:.\Generated_Source\PSoC4/Bootloader.c ****                             }
1407:.\Generated_Source\PSoC4/Bootloader.c ****                             Bootloader_activeApp = btldrData;
1408:.\Generated_Source\PSoC4/Bootloader.c ****                             ackCode = CYRET_SUCCESS;
1409:.\Generated_Source\PSoC4/Bootloader.c ****                         }
1410:.\Generated_Source\PSoC4/Bootloader.c ****                         else
1411:.\Generated_Source\PSoC4/Bootloader.c ****                         {
1412:.\Generated_Source\PSoC4/Bootloader.c ****                             ackCode = Bootloader_ERR_APP;
1413:.\Generated_Source\PSoC4/Bootloader.c ****                         }
1414:.\Generated_Source\PSoC4/Bootloader.c ****                     }
1415:.\Generated_Source\PSoC4/Bootloader.c ****                     break;
1416:.\Generated_Source\PSoC4/Bootloader.c **** 
1417:.\Generated_Source\PSoC4/Bootloader.c ****             #endif  /* (0u != Bootloader_DUAL_APP_BOOTLOADER) */
1418:.\Generated_Source\PSoC4/Bootloader.c **** 
1419:.\Generated_Source\PSoC4/Bootloader.c **** 
1420:.\Generated_Source\PSoC4/Bootloader.c ****             /***************************************************************************
1421:.\Generated_Source\PSoC4/Bootloader.c ****             *   Send data
1422:.\Generated_Source\PSoC4/Bootloader.c ****             ***************************************************************************/
1423:.\Generated_Source\PSoC4/Bootloader.c ****             #if (0u != Bootloader_CMD_SEND_DATA_AVAIL)
1424:.\Generated_Source\PSoC4/Bootloader.c **** 
1425:.\Generated_Source\PSoC4/Bootloader.c ****                 case Bootloader_COMMAND_DATA:
1426:.\Generated_Source\PSoC4/Bootloader.c **** 
1427:.\Generated_Source\PSoC4/Bootloader.c ****                     if(Bootloader_COMMUNICATION_STATE_ACTIVE == communicationState)
ARM GAS  C:\Users\kbuchi\AppData\Local\Temp\cc4AaGId.s 			page 28


1428:.\Generated_Source\PSoC4/Bootloader.c ****                     {
1429:.\Generated_Source\PSoC4/Bootloader.c ****                         /*  Make sure that dataOffset is valid before copying the data */
1430:.\Generated_Source\PSoC4/Bootloader.c ****                         if((dataOffset + pktSize) <= Bootloader_SIZEOF_COMMAND_BUFFER)
1431:.\Generated_Source\PSoC4/Bootloader.c ****                         {
1432:.\Generated_Source\PSoC4/Bootloader.c ****                             ackCode = CYRET_SUCCESS;
1433:.\Generated_Source\PSoC4/Bootloader.c **** 
1434:.\Generated_Source\PSoC4/Bootloader.c ****                             #if(CY_PSOC3)
1435:.\Generated_Source\PSoC4/Bootloader.c ****                                 (void) memcpy(&dataBuffer[dataOffset],
1436:.\Generated_Source\PSoC4/Bootloader.c ****                                               &packetBuffer[Bootloader_DATA_ADDR],
1437:.\Generated_Source\PSoC4/Bootloader.c ****                                               ( int16 )pktSize);
1438:.\Generated_Source\PSoC4/Bootloader.c ****                             #else
1439:.\Generated_Source\PSoC4/Bootloader.c ****                                 (void) memcpy(&dataBuffer[dataOffset],
1440:.\Generated_Source\PSoC4/Bootloader.c ****                                               &packetBuffer[Bootloader_DATA_ADDR],
1441:.\Generated_Source\PSoC4/Bootloader.c ****                                               (uint32) pktSize);
1442:.\Generated_Source\PSoC4/Bootloader.c ****                             #endif  /* (CY_PSOC3) */
1443:.\Generated_Source\PSoC4/Bootloader.c **** 
1444:.\Generated_Source\PSoC4/Bootloader.c ****                             dataOffset += pktSize;
1445:.\Generated_Source\PSoC4/Bootloader.c ****                         }
1446:.\Generated_Source\PSoC4/Bootloader.c ****                         else
1447:.\Generated_Source\PSoC4/Bootloader.c ****                         {
1448:.\Generated_Source\PSoC4/Bootloader.c ****                             ackCode = Bootloader_ERR_LENGTH;
1449:.\Generated_Source\PSoC4/Bootloader.c ****                         }
1450:.\Generated_Source\PSoC4/Bootloader.c ****                     }
1451:.\Generated_Source\PSoC4/Bootloader.c **** 
1452:.\Generated_Source\PSoC4/Bootloader.c ****                     break;
1453:.\Generated_Source\PSoC4/Bootloader.c **** 
1454:.\Generated_Source\PSoC4/Bootloader.c ****             #endif  /* (0u != Bootloader_CMD_SEND_DATA_AVAIL) */
1455:.\Generated_Source\PSoC4/Bootloader.c **** 
1456:.\Generated_Source\PSoC4/Bootloader.c **** 
1457:.\Generated_Source\PSoC4/Bootloader.c ****             /***************************************************************************
1458:.\Generated_Source\PSoC4/Bootloader.c ****             *   Enter bootloader
1459:.\Generated_Source\PSoC4/Bootloader.c ****             ***************************************************************************/
1460:.\Generated_Source\PSoC4/Bootloader.c ****             case Bootloader_COMMAND_ENTER:
1461:.\Generated_Source\PSoC4/Bootloader.c **** 
1462:.\Generated_Source\PSoC4/Bootloader.c ****                 if(pktSize == 0u)
1463:.\Generated_Source\PSoC4/Bootloader.c ****                 {
1464:.\Generated_Source\PSoC4/Bootloader.c ****                     #if(CY_PSOC3)
1465:.\Generated_Source\PSoC4/Bootloader.c **** 
1466:.\Generated_Source\PSoC4/Bootloader.c ****                         Bootloader_ENTER CYDATA BtldrVersion =
1467:.\Generated_Source\PSoC4/Bootloader.c ****                             {CYSWAP_ENDIAN32(CYDEV_CHIP_JTAG_ID), CYDEV_CHIP_REV_EXPECT, Bootloader
1468:.\Generated_Source\PSoC4/Bootloader.c **** 
1469:.\Generated_Source\PSoC4/Bootloader.c ****                     #else
1470:.\Generated_Source\PSoC4/Bootloader.c **** 
1471:.\Generated_Source\PSoC4/Bootloader.c ****                         Bootloader_ENTER CYDATA BtldrVersion =
1472:.\Generated_Source\PSoC4/Bootloader.c ****                             {CYDEV_CHIP_JTAG_ID, CYDEV_CHIP_REV_EXPECT, Bootloader_VERSION};
1473:.\Generated_Source\PSoC4/Bootloader.c **** 
1474:.\Generated_Source\PSoC4/Bootloader.c ****                     #endif  /* (CY_PSOC3) */
1475:.\Generated_Source\PSoC4/Bootloader.c **** 
1476:.\Generated_Source\PSoC4/Bootloader.c ****                     communicationState = Bootloader_COMMUNICATION_STATE_ACTIVE;
1477:.\Generated_Source\PSoC4/Bootloader.c **** 
1478:.\Generated_Source\PSoC4/Bootloader.c ****                     rspSize = sizeof(Bootloader_ENTER);
1479:.\Generated_Source\PSoC4/Bootloader.c **** 
1480:.\Generated_Source\PSoC4/Bootloader.c ****                     #if(CY_PSOC3)
1481:.\Generated_Source\PSoC4/Bootloader.c ****                         (void) memcpy(&packetBuffer[Bootloader_DATA_ADDR],
1482:.\Generated_Source\PSoC4/Bootloader.c ****                                       &BtldrVersion,
1483:.\Generated_Source\PSoC4/Bootloader.c ****                                       ( int16 )rspSize);
1484:.\Generated_Source\PSoC4/Bootloader.c ****                     #else
ARM GAS  C:\Users\kbuchi\AppData\Local\Temp\cc4AaGId.s 			page 29


1485:.\Generated_Source\PSoC4/Bootloader.c ****                         (void) memcpy(&packetBuffer[Bootloader_DATA_ADDR],
1486:.\Generated_Source\PSoC4/Bootloader.c ****                                       &BtldrVersion,
1487:.\Generated_Source\PSoC4/Bootloader.c ****                                       (uint32) rspSize);
1488:.\Generated_Source\PSoC4/Bootloader.c ****                     #endif  /* (CY_PSOC3) */
1489:.\Generated_Source\PSoC4/Bootloader.c **** 
1490:.\Generated_Source\PSoC4/Bootloader.c ****                     ackCode = CYRET_SUCCESS;
1491:.\Generated_Source\PSoC4/Bootloader.c ****                 }
1492:.\Generated_Source\PSoC4/Bootloader.c ****                 break;
1493:.\Generated_Source\PSoC4/Bootloader.c **** 
1494:.\Generated_Source\PSoC4/Bootloader.c **** 
1495:.\Generated_Source\PSoC4/Bootloader.c ****             /***************************************************************************
1496:.\Generated_Source\PSoC4/Bootloader.c ****             *   Verify row
1497:.\Generated_Source\PSoC4/Bootloader.c ****             ***************************************************************************/
1498:.\Generated_Source\PSoC4/Bootloader.c ****             #if (0u != Bootloader_CMD_VERIFY_ROW_AVAIL)
1499:.\Generated_Source\PSoC4/Bootloader.c **** 
1500:.\Generated_Source\PSoC4/Bootloader.c ****             case Bootloader_COMMAND_VERIFY:
1501:.\Generated_Source\PSoC4/Bootloader.c **** 
1502:.\Generated_Source\PSoC4/Bootloader.c ****                 if((Bootloader_COMMUNICATION_STATE_ACTIVE == communicationState) && (pktSize == 3u)
1503:.\Generated_Source\PSoC4/Bootloader.c ****                 {
1504:.\Generated_Source\PSoC4/Bootloader.c ****                     /* Get FLASH/EEPROM row number */
1505:.\Generated_Source\PSoC4/Bootloader.c ****                     uint16 CYDATA rowNum = ((uint16)((uint16)packetBuffer[Bootloader_DATA_ADDR + 2u
1506:.\Generated_Source\PSoC4/Bootloader.c ****                                                     packetBuffer[Bootloader_DATA_ADDR + 1u];
1507:.\Generated_Source\PSoC4/Bootloader.c **** 
1508:.\Generated_Source\PSoC4/Bootloader.c ****                     #if(!CY_PSOC4)
1509:.\Generated_Source\PSoC4/Bootloader.c **** 
1510:.\Generated_Source\PSoC4/Bootloader.c ****                         uint32 CYDATA rowAddr;
1511:.\Generated_Source\PSoC4/Bootloader.c ****                         uint8 CYDATA checksum;
1512:.\Generated_Source\PSoC4/Bootloader.c **** 
1513:.\Generated_Source\PSoC4/Bootloader.c ****                         if((btldrData >= Bootloader_FIRST_EE_ARRAYID) &&
1514:.\Generated_Source\PSoC4/Bootloader.c ****                            (btldrData <= Bootloader_LAST_EE_ARRAYID))
1515:.\Generated_Source\PSoC4/Bootloader.c ****                         {
1516:.\Generated_Source\PSoC4/Bootloader.c ****                             /* EEPROM */
1517:.\Generated_Source\PSoC4/Bootloader.c ****                             /* Both PSoC 3 and PSoC 5LP architectures have one EEPROM array. */
1518:.\Generated_Source\PSoC4/Bootloader.c ****                             rowAddr = (uint32)rowNum * CYDEV_EEPROM_ROW_SIZE;
1519:.\Generated_Source\PSoC4/Bootloader.c **** 
1520:.\Generated_Source\PSoC4/Bootloader.c ****                             checksum = Bootloader_Calc8BitSum(CY_EEPROM_BASE, rowAddr, CYDEV_EEPROM
1521:.\Generated_Source\PSoC4/Bootloader.c ****                         }
1522:.\Generated_Source\PSoC4/Bootloader.c ****                         else
1523:.\Generated_Source\PSoC4/Bootloader.c ****                         {
1524:.\Generated_Source\PSoC4/Bootloader.c ****                             /* FLASH */
1525:.\Generated_Source\PSoC4/Bootloader.c ****                             rowAddr = ((uint32)btldrData * CYDEV_FLS_SECTOR_SIZE)
1526:.\Generated_Source\PSoC4/Bootloader.c ****                                        + ((uint32)rowNum * CYDEV_FLS_ROW_SIZE);
1527:.\Generated_Source\PSoC4/Bootloader.c **** 
1528:.\Generated_Source\PSoC4/Bootloader.c ****                             checksum = Bootloader_Calc8BitSum(CY_FLASH_BASE, rowAddr, CYDEV_FLS_ROW
1529:.\Generated_Source\PSoC4/Bootloader.c ****                         }
1530:.\Generated_Source\PSoC4/Bootloader.c **** 
1531:.\Generated_Source\PSoC4/Bootloader.c ****                     #else
1532:.\Generated_Source\PSoC4/Bootloader.c **** 
1533:.\Generated_Source\PSoC4/Bootloader.c ****                         uint32 CYDATA rowAddr = ((uint32)btldrData * CYDEV_FLS_SECTOR_SIZE)
1534:.\Generated_Source\PSoC4/Bootloader.c ****                                             + ((uint32)rowNum * CYDEV_FLS_ROW_SIZE);
1535:.\Generated_Source\PSoC4/Bootloader.c **** 
1536:.\Generated_Source\PSoC4/Bootloader.c ****                         uint8 CYDATA checksum = Bootloader_Calc8BitSum(CY_FLASH_BASE,
1537:.\Generated_Source\PSoC4/Bootloader.c ****                                                                              rowAddr,
1538:.\Generated_Source\PSoC4/Bootloader.c ****                                                                              CYDEV_FLS_ROW_SIZE);
1539:.\Generated_Source\PSoC4/Bootloader.c **** 
1540:.\Generated_Source\PSoC4/Bootloader.c ****                     #endif  /* (!CY_PSOC4) */
1541:.\Generated_Source\PSoC4/Bootloader.c **** 
ARM GAS  C:\Users\kbuchi\AppData\Local\Temp\cc4AaGId.s 			page 30


1542:.\Generated_Source\PSoC4/Bootloader.c **** 
1543:.\Generated_Source\PSoC4/Bootloader.c ****                     /* Calculate checksum on data from ECC */
1544:.\Generated_Source\PSoC4/Bootloader.c ****                     #if(!CY_PSOC4) && (CYDEV_ECC_ENABLE == 0u)
1545:.\Generated_Source\PSoC4/Bootloader.c **** 
1546:.\Generated_Source\PSoC4/Bootloader.c ****                         if(btldrData <= Bootloader_LAST_FLASH_ARRAYID)
1547:.\Generated_Source\PSoC4/Bootloader.c ****                         {
1548:.\Generated_Source\PSoC4/Bootloader.c ****                             uint16 CYDATA tmpIndex;
1549:.\Generated_Source\PSoC4/Bootloader.c **** 
1550:.\Generated_Source\PSoC4/Bootloader.c ****                             rowAddr = CYDEV_ECC_BASE + ((uint32)btldrData * (CYDEV_FLS_SECTOR_SIZE 
1551:.\Generated_Source\PSoC4/Bootloader.c ****                                         + ((uint32)rowNum * CYDEV_ECC_ROW_SIZE);
1552:.\Generated_Source\PSoC4/Bootloader.c **** 
1553:.\Generated_Source\PSoC4/Bootloader.c ****                             for(tmpIndex = 0u; tmpIndex < CYDEV_ECC_ROW_SIZE; tmpIndex++)
1554:.\Generated_Source\PSoC4/Bootloader.c ****                             {
1555:.\Generated_Source\PSoC4/Bootloader.c ****                                 checksum += CY_GET_XTND_REG8((uint8 CYFAR *)(rowAddr + tmpIndex));
1556:.\Generated_Source\PSoC4/Bootloader.c ****                             }
1557:.\Generated_Source\PSoC4/Bootloader.c ****                         }
1558:.\Generated_Source\PSoC4/Bootloader.c **** 
1559:.\Generated_Source\PSoC4/Bootloader.c ****                     #endif  /* (!CY_PSOC4) && (CYDEV_ECC_ENABLE == 0u) */
1560:.\Generated_Source\PSoC4/Bootloader.c **** 
1561:.\Generated_Source\PSoC4/Bootloader.c **** 
1562:.\Generated_Source\PSoC4/Bootloader.c ****                     /******************************************************************************
1563:.\Generated_Source\PSoC4/Bootloader.c ****                     * App Verified & App Active are information that is updated in Flash at runtime
1564:.\Generated_Source\PSoC4/Bootloader.c ****                     * Remove these items from the checksum to allow the host to verify everything i
1565:.\Generated_Source\PSoC4/Bootloader.c ****                     * correct.
1566:.\Generated_Source\PSoC4/Bootloader.c ****                      ******************************************************************************
1567:.\Generated_Source\PSoC4/Bootloader.c ****                     if((Bootloader_MD_FLASH_ARRAY_NUM == btldrData) &&
1568:.\Generated_Source\PSoC4/Bootloader.c ****                        (Bootloader_CONTAIN_METADATA(rowNum)))
1569:.\Generated_Source\PSoC4/Bootloader.c ****                     {
1570:.\Generated_Source\PSoC4/Bootloader.c **** 
1571:.\Generated_Source\PSoC4/Bootloader.c ****                         checksum -= (uint8)Bootloader_GetMetadata(Bootloader_GET_BTLDB_ACTIVE,
1572:.\Generated_Source\PSoC4/Bootloader.c ****                                                                  Bootloader_GET_APP_ID(rowNum));
1573:.\Generated_Source\PSoC4/Bootloader.c **** 
1574:.\Generated_Source\PSoC4/Bootloader.c ****                         checksum -= (uint8)Bootloader_GetMetadata(Bootloader_GET_BTLDB_STATUS,
1575:.\Generated_Source\PSoC4/Bootloader.c ****                                                                  Bootloader_GET_APP_ID(rowNum));
1576:.\Generated_Source\PSoC4/Bootloader.c ****                     }
1577:.\Generated_Source\PSoC4/Bootloader.c **** 
1578:.\Generated_Source\PSoC4/Bootloader.c ****                     packetBuffer[Bootloader_DATA_ADDR] = (uint8)1u + (uint8)(~checksum);
1579:.\Generated_Source\PSoC4/Bootloader.c ****                     ackCode = CYRET_SUCCESS;
1580:.\Generated_Source\PSoC4/Bootloader.c ****                     rspSize = 1u;
1581:.\Generated_Source\PSoC4/Bootloader.c ****                 }
1582:.\Generated_Source\PSoC4/Bootloader.c ****                 break;
1583:.\Generated_Source\PSoC4/Bootloader.c **** 
1584:.\Generated_Source\PSoC4/Bootloader.c ****             #endif /* (0u != Bootloader_CMD_VERIFY_ROW_AVAIL) */
1585:.\Generated_Source\PSoC4/Bootloader.c **** 
1586:.\Generated_Source\PSoC4/Bootloader.c **** 
1587:.\Generated_Source\PSoC4/Bootloader.c ****             /***************************************************************************
1588:.\Generated_Source\PSoC4/Bootloader.c ****             *   Exit bootloader
1589:.\Generated_Source\PSoC4/Bootloader.c ****             ***************************************************************************/
1590:.\Generated_Source\PSoC4/Bootloader.c ****             case Bootloader_COMMAND_EXIT:
1591:.\Generated_Source\PSoC4/Bootloader.c **** 
1592:.\Generated_Source\PSoC4/Bootloader.c ****                 if(CYRET_SUCCESS == Bootloader_ValidateBootloadable(Bootloader_activeApp))
1593:.\Generated_Source\PSoC4/Bootloader.c ****                 {
1594:.\Generated_Source\PSoC4/Bootloader.c ****                     Bootloader_SET_RUN_TYPE(Bootloader_SCHEDULE_BTLDB);
1595:.\Generated_Source\PSoC4/Bootloader.c ****                 }
1596:.\Generated_Source\PSoC4/Bootloader.c **** 
1597:.\Generated_Source\PSoC4/Bootloader.c ****                 CySoftwareReset();
1598:.\Generated_Source\PSoC4/Bootloader.c **** 
ARM GAS  C:\Users\kbuchi\AppData\Local\Temp\cc4AaGId.s 			page 31


1599:.\Generated_Source\PSoC4/Bootloader.c ****                 /* Will never get here */
1600:.\Generated_Source\PSoC4/Bootloader.c ****                 break;
1601:.\Generated_Source\PSoC4/Bootloader.c **** 
1602:.\Generated_Source\PSoC4/Bootloader.c **** 
1603:.\Generated_Source\PSoC4/Bootloader.c ****             /***************************************************************************
1604:.\Generated_Source\PSoC4/Bootloader.c ****             *   Unsupported command
1605:.\Generated_Source\PSoC4/Bootloader.c ****             ***************************************************************************/
1606:.\Generated_Source\PSoC4/Bootloader.c ****             default:
1607:.\Generated_Source\PSoC4/Bootloader.c ****                 ackCode = Bootloader_ERR_CMD;
1608:.\Generated_Source\PSoC4/Bootloader.c ****                 break;
1609:.\Generated_Source\PSoC4/Bootloader.c ****             }
1610:.\Generated_Source\PSoC4/Bootloader.c ****         }
1611:.\Generated_Source\PSoC4/Bootloader.c **** 
1612:.\Generated_Source\PSoC4/Bootloader.c ****         /* Reply with acknowledge or not acknowledge packet */
1613:.\Generated_Source\PSoC4/Bootloader.c ****         (void) Bootloader_WritePacket(ackCode, packetBuffer, rspSize);
1614:.\Generated_Source\PSoC4/Bootloader.c **** 
1615:.\Generated_Source\PSoC4/Bootloader.c ****     } while ((0u == timeOut) || (Bootloader_COMMUNICATION_STATE_ACTIVE == communicationState));
1616:.\Generated_Source\PSoC4/Bootloader.c **** }
1617:.\Generated_Source\PSoC4/Bootloader.c **** 
1618:.\Generated_Source\PSoC4/Bootloader.c **** 
1619:.\Generated_Source\PSoC4/Bootloader.c **** /*******************************************************************************
1620:.\Generated_Source\PSoC4/Bootloader.c **** * Function Name: Bootloader_WritePacket
1621:.\Generated_Source\PSoC4/Bootloader.c **** ********************************************************************************
1622:.\Generated_Source\PSoC4/Bootloader.c **** *
1623:.\Generated_Source\PSoC4/Bootloader.c **** * Summary:
1624:.\Generated_Source\PSoC4/Bootloader.c **** *  Creates a bootloader response packet and transmits it back to the bootloader
1625:.\Generated_Source\PSoC4/Bootloader.c **** *  host application over the already established communications protocol.
1626:.\Generated_Source\PSoC4/Bootloader.c **** *
1627:.\Generated_Source\PSoC4/Bootloader.c **** * Parameters:
1628:.\Generated_Source\PSoC4/Bootloader.c **** *  status:
1629:.\Generated_Source\PSoC4/Bootloader.c **** *      The status code to pass back as the second byte of the packet
1630:.\Generated_Source\PSoC4/Bootloader.c **** *  buffer:
1631:.\Generated_Source\PSoC4/Bootloader.c **** *      The buffer containing the data portion of the packet
1632:.\Generated_Source\PSoC4/Bootloader.c **** *  size:
1633:.\Generated_Source\PSoC4/Bootloader.c **** *      The number of bytes contained within the buffer to pass back
1634:.\Generated_Source\PSoC4/Bootloader.c **** *
1635:.\Generated_Source\PSoC4/Bootloader.c **** * Return:
1636:.\Generated_Source\PSoC4/Bootloader.c **** *   CYRET_SUCCESS if successful. Any other non-zero value if failure occurred.
1637:.\Generated_Source\PSoC4/Bootloader.c **** *
1638:.\Generated_Source\PSoC4/Bootloader.c **** *******************************************************************************/
1639:.\Generated_Source\PSoC4/Bootloader.c **** static cystatus Bootloader_WritePacket(uint8 status, uint8 buffer[], uint16 size) CYSMALL \
1640:.\Generated_Source\PSoC4/Bootloader.c ****                                             
1641:.\Generated_Source\PSoC4/Bootloader.c **** {
1642:.\Generated_Source\PSoC4/Bootloader.c ****     uint16 CYDATA checksum;
1643:.\Generated_Source\PSoC4/Bootloader.c **** 
1644:.\Generated_Source\PSoC4/Bootloader.c ****     /* Start of packet. */
1645:.\Generated_Source\PSoC4/Bootloader.c ****     buffer[Bootloader_SOP_ADDR]      = Bootloader_SOP;
1646:.\Generated_Source\PSoC4/Bootloader.c ****     buffer[Bootloader_CMD_ADDR]      = status;
1647:.\Generated_Source\PSoC4/Bootloader.c ****     buffer[Bootloader_SIZE_ADDR]     = LO8(size);
1648:.\Generated_Source\PSoC4/Bootloader.c ****     buffer[Bootloader_SIZE_ADDR + 1u] = HI8(size);
1649:.\Generated_Source\PSoC4/Bootloader.c **** 
1650:.\Generated_Source\PSoC4/Bootloader.c ****     /* Compute checksum. */
1651:.\Generated_Source\PSoC4/Bootloader.c ****     checksum = Bootloader_CalcPacketChecksum(buffer, size + Bootloader_DATA_ADDR);
1652:.\Generated_Source\PSoC4/Bootloader.c **** 
1653:.\Generated_Source\PSoC4/Bootloader.c ****     buffer[Bootloader_CHK_ADDR(size)]     = LO8(checksum);
1654:.\Generated_Source\PSoC4/Bootloader.c ****     buffer[Bootloader_CHK_ADDR(1u + size)] = HI8(checksum);
1655:.\Generated_Source\PSoC4/Bootloader.c ****     buffer[Bootloader_EOP_ADDR(size)]     = Bootloader_EOP;
ARM GAS  C:\Users\kbuchi\AppData\Local\Temp\cc4AaGId.s 			page 32


1656:.\Generated_Source\PSoC4/Bootloader.c **** 
1657:.\Generated_Source\PSoC4/Bootloader.c ****     /* Start packet transmit. */
1658:.\Generated_Source\PSoC4/Bootloader.c ****     return(CyBtldrCommWrite(buffer, size + Bootloader_MIN_PKT_SIZE, &size, 150u));
1659:.\Generated_Source\PSoC4/Bootloader.c **** }
1660:.\Generated_Source\PSoC4/Bootloader.c **** 
1661:.\Generated_Source\PSoC4/Bootloader.c **** 
1662:.\Generated_Source\PSoC4/Bootloader.c **** /*******************************************************************************
1663:.\Generated_Source\PSoC4/Bootloader.c **** * Function Name: Bootloader_SetFlashByte
1664:.\Generated_Source\PSoC4/Bootloader.c **** ********************************************************************************
1665:.\Generated_Source\PSoC4/Bootloader.c **** *
1666:.\Generated_Source\PSoC4/Bootloader.c **** * Summary:
1667:.\Generated_Source\PSoC4/Bootloader.c **** *  Writes a byte to the specified Flash memory location.
1668:.\Generated_Source\PSoC4/Bootloader.c **** *
1669:.\Generated_Source\PSoC4/Bootloader.c **** * Parameters:
1670:.\Generated_Source\PSoC4/Bootloader.c **** *  address:
1671:.\Generated_Source\PSoC4/Bootloader.c **** *      The address in Flash memory where data will be written
1672:.\Generated_Source\PSoC4/Bootloader.c **** *
1673:.\Generated_Source\PSoC4/Bootloader.c **** *  runType:
1674:.\Generated_Source\PSoC4/Bootloader.c **** *      Byte to be written
1675:.\Generated_Source\PSoC4/Bootloader.c **** *
1676:.\Generated_Source\PSoC4/Bootloader.c **** * Return:
1677:.\Generated_Source\PSoC4/Bootloader.c **** *  None
1678:.\Generated_Source\PSoC4/Bootloader.c **** *
1679:.\Generated_Source\PSoC4/Bootloader.c **** *******************************************************************************/
1680:.\Generated_Source\PSoC4/Bootloader.c **** void Bootloader_SetFlashByte(uint32 address, uint8 runType) 
1681:.\Generated_Source\PSoC4/Bootloader.c **** {
 104              		.loc 1 1681 0
 105              		.cfi_startproc
 106              	.LVL11:
 107 0000 70B5     		push	{r4, r5, r6, lr}
 108              		.cfi_def_cfa_offset 16
 109              		.cfi_offset 4, -16
 110              		.cfi_offset 5, -12
 111              		.cfi_offset 6, -8
 112              		.cfi_offset 14, -4
1682:.\Generated_Source\PSoC4/Bootloader.c ****     uint32 flsAddr = address - CYDEV_FLASH_BASE;
1683:.\Generated_Source\PSoC4/Bootloader.c ****     uint8  rowData[CYDEV_FLS_ROW_SIZE];
1684:.\Generated_Source\PSoC4/Bootloader.c **** 
1685:.\Generated_Source\PSoC4/Bootloader.c ****     #if !(CY_PSOC4)
1686:.\Generated_Source\PSoC4/Bootloader.c ****         uint8 arrayId = ( uint8 )(flsAddr / CYDEV_FLS_SECTOR_SIZE);
1687:.\Generated_Source\PSoC4/Bootloader.c ****     #endif  /* !(CY_PSOC4) */
1688:.\Generated_Source\PSoC4/Bootloader.c **** 
1689:.\Generated_Source\PSoC4/Bootloader.c ****     #if (CY_PSOC4)
1690:.\Generated_Source\PSoC4/Bootloader.c ****         uint16 rowNum = ( uint16 )(flsAddr / CYDEV_FLS_ROW_SIZE);
1691:.\Generated_Source\PSoC4/Bootloader.c ****     #else
1692:.\Generated_Source\PSoC4/Bootloader.c ****         uint16 rowNum = ( uint16 )((flsAddr % CYDEV_FLS_SECTOR_SIZE) / CYDEV_FLS_ROW_SIZE);
1693:.\Generated_Source\PSoC4/Bootloader.c ****     #endif  /* (CY_PSOC4) */
1694:.\Generated_Source\PSoC4/Bootloader.c **** 
1695:.\Generated_Source\PSoC4/Bootloader.c ****     uint32 baseAddr = address - (address % CYDEV_FLS_ROW_SIZE);
 113              		.loc 1 1695 0
 114 0002 7F23     		mov	r3, #127
 115 0004 051C     		mov	r5, r0
 116 0006 9D43     		bic	r5, r3
1681:.\Generated_Source\PSoC4/Bootloader.c **** {
 117              		.loc 1 1681 0
 118 0008 A0B0     		sub	sp, sp, #128
 119              		.cfi_def_cfa_offset 144
ARM GAS  C:\Users\kbuchi\AppData\Local\Temp\cc4AaGId.s 			page 33


1690:.\Generated_Source\PSoC4/Bootloader.c ****         uint16 rowNum = ( uint16 )(flsAddr / CYDEV_FLS_ROW_SIZE);
 120              		.loc 1 1690 0
 121 000a C209     		lsr	r2, r0, #7
 122              	.LVL12:
 123              		.loc 1 1695 0
 124 000c 0023     		mov	r3, #0
 125              	.LVL13:
 126              	.L13:
1696:.\Generated_Source\PSoC4/Bootloader.c ****     uint16 idx;
1697:.\Generated_Source\PSoC4/Bootloader.c **** 
1698:.\Generated_Source\PSoC4/Bootloader.c ****     for(idx = 0u; idx < CYDEV_FLS_ROW_SIZE; idx++)
1699:.\Generated_Source\PSoC4/Bootloader.c ****     {
1700:.\Generated_Source\PSoC4/Bootloader.c ****         rowData[idx] = Bootloader_GET_CODE_BYTE(baseAddr + idx);
 127              		.loc 1 1700 0 discriminator 2
 128 000e 5C5D     		ldrb	r4, [r3, r5]
 129 0010 6E46     		mov	r6, sp
 130 0012 9C55     		strb	r4, [r3, r6]
 131              	.LVL14:
 132 0014 0133     		add	r3, r3, #1
 133              	.LVL15:
1698:.\Generated_Source\PSoC4/Bootloader.c ****     for(idx = 0u; idx < CYDEV_FLS_ROW_SIZE; idx++)
 134              		.loc 1 1698 0 discriminator 2
 135 0016 802B     		cmp	r3, #128
 136 0018 F9D1     		bne	.L13
1701:.\Generated_Source\PSoC4/Bootloader.c ****     }
1702:.\Generated_Source\PSoC4/Bootloader.c **** 
1703:.\Generated_Source\PSoC4/Bootloader.c ****     rowData[address % CYDEV_FLS_ROW_SIZE] = runType;
 137              		.loc 1 1703 0
 138 001a 7F23     		mov	r3, #127
 139              	.LVL16:
 140 001c 1840     		and	r0, r3
 141              	.LVL17:
 142 001e 3154     		strb	r1, [r6, r0]
1704:.\Generated_Source\PSoC4/Bootloader.c **** 
1705:.\Generated_Source\PSoC4/Bootloader.c ****     #if(CY_PSOC4)
1706:.\Generated_Source\PSoC4/Bootloader.c ****         (void) CySysFlashWriteRow((uint32) rowNum, rowData);
 143              		.loc 1 1706 0
 144 0020 90B2     		uxth	r0, r2
 145 0022 6946     		mov	r1, sp
 146              	.LVL18:
 147 0024 FFF7FEFF 		bl	CySysFlashWriteRow
 148              	.LVL19:
1707:.\Generated_Source\PSoC4/Bootloader.c ****     #else
1708:.\Generated_Source\PSoC4/Bootloader.c ****         (void) CyWriteRowData(arrayId, rowNum, rowData);
1709:.\Generated_Source\PSoC4/Bootloader.c ****     #endif  /* (CY_PSOC4) */
1710:.\Generated_Source\PSoC4/Bootloader.c **** 
1711:.\Generated_Source\PSoC4/Bootloader.c ****     #if(CY_PSOC5)
1712:.\Generated_Source\PSoC4/Bootloader.c ****         /***************************************************************************
1713:.\Generated_Source\PSoC4/Bootloader.c ****         * When writing Flash, data in the instruction cache can become stale.
1714:.\Generated_Source\PSoC4/Bootloader.c ****         * Therefore, the cache data does not correlate to the data just written to
1715:.\Generated_Source\PSoC4/Bootloader.c ****         * Flash. A call to CyFlushCache() is required to invalidate the data in the
1716:.\Generated_Source\PSoC4/Bootloader.c ****         * cache and force fresh information to be loaded from Flash.
1717:.\Generated_Source\PSoC4/Bootloader.c ****         ***************************************************************************/
1718:.\Generated_Source\PSoC4/Bootloader.c ****         CyFlushCache();
1719:.\Generated_Source\PSoC4/Bootloader.c ****     #endif /* (CY_PSOC5) */
1720:.\Generated_Source\PSoC4/Bootloader.c **** }
 149              		.loc 1 1720 0
ARM GAS  C:\Users\kbuchi\AppData\Local\Temp\cc4AaGId.s 			page 34


 150 0028 20B0     		add	sp, sp, #128
 151              		@ sp needed
 152              	.LVL20:
 153 002a 70BD     		pop	{r4, r5, r6, pc}
 154              		.cfi_endproc
 155              	.LFE43:
 156              		.size	Bootloader_SetFlashByte, .-Bootloader_SetFlashByte
 157              		.section	.text.Bootloader_GetMetadata,"ax",%progbits
 158              		.align	1
 159              		.global	Bootloader_GetMetadata
 160              		.code	16
 161              		.thumb_func
 162              		.type	Bootloader_GetMetadata, %function
 163              	Bootloader_GetMetadata:
 164              	.LFB44:
1721:.\Generated_Source\PSoC4/Bootloader.c **** 
1722:.\Generated_Source\PSoC4/Bootloader.c **** 
1723:.\Generated_Source\PSoC4/Bootloader.c **** /*******************************************************************************
1724:.\Generated_Source\PSoC4/Bootloader.c **** * Function Name: Bootloader_GetMetadata
1725:.\Generated_Source\PSoC4/Bootloader.c **** ********************************************************************************
1726:.\Generated_Source\PSoC4/Bootloader.c **** *
1727:.\Generated_Source\PSoC4/Bootloader.c **** * Summary:
1728:.\Generated_Source\PSoC4/Bootloader.c **** *  Returns the value of the specified field of the metadata section.
1729:.\Generated_Source\PSoC4/Bootloader.c **** *
1730:.\Generated_Source\PSoC4/Bootloader.c **** * Parameters:
1731:.\Generated_Source\PSoC4/Bootloader.c **** *  field:
1732:.\Generated_Source\PSoC4/Bootloader.c **** *   The field to get data from:
1733:.\Generated_Source\PSoC4/Bootloader.c **** *   Bootloader_GET_BTLDB_CHECKSUM    - Bootloadable Application Checksum
1734:.\Generated_Source\PSoC4/Bootloader.c **** *   Bootloader_GET_BTLDB_ADDR        - Bootloadable Application Start
1735:.\Generated_Source\PSoC4/Bootloader.c **** *                                            Routine Address
1736:.\Generated_Source\PSoC4/Bootloader.c **** *   Bootloader_GET_BTLDR_LAST_ROW    - Bootloader Last Flash Row
1737:.\Generated_Source\PSoC4/Bootloader.c **** *   Bootloader_GET_BTLDB_LENGTH      - Bootloadable Application Length
1738:.\Generated_Source\PSoC4/Bootloader.c **** *   Bootloader_GET_BTLDB_ACTIVE      - Active Bootloadable Application
1739:.\Generated_Source\PSoC4/Bootloader.c **** *   Bootloader_GET_BTLDB_STATUS      - Bootloadable Application
1740:.\Generated_Source\PSoC4/Bootloader.c **** *                                            Verification Status
1741:.\Generated_Source\PSoC4/Bootloader.c **** *   Bootloader_GET_BTLDR_APP_VERSION - Bootloader Application Version
1742:.\Generated_Source\PSoC4/Bootloader.c **** *   Bootloader_GET_BTLDB_APP_VERSION - Bootloadable Application Version
1743:.\Generated_Source\PSoC4/Bootloader.c **** *   Bootloader_GET_BTLDB_APP_ID      - Bootloadable Application ID
1744:.\Generated_Source\PSoC4/Bootloader.c **** *   Bootloader_GET_BTLDB_APP_CUST_ID - Bootloadable Application Custom ID
1745:.\Generated_Source\PSoC4/Bootloader.c **** *
1746:.\Generated_Source\PSoC4/Bootloader.c **** *  appId:
1747:.\Generated_Source\PSoC4/Bootloader.c **** *   Number of the bootlodable application. Should be 0 for the normal
1748:.\Generated_Source\PSoC4/Bootloader.c **** *   bootloader and 0 or 1 for the Multi-Application bootloader.
1749:.\Generated_Source\PSoC4/Bootloader.c **** *
1750:.\Generated_Source\PSoC4/Bootloader.c **** * Return:
1751:.\Generated_Source\PSoC4/Bootloader.c **** *  The value of the specified field of the specified application.
1752:.\Generated_Source\PSoC4/Bootloader.c **** *
1753:.\Generated_Source\PSoC4/Bootloader.c **** *******************************************************************************/
1754:.\Generated_Source\PSoC4/Bootloader.c **** uint32 Bootloader_GetMetadata(uint8 field, uint8 appId)
1755:.\Generated_Source\PSoC4/Bootloader.c **** {
 165              		.loc 1 1755 0
 166              		.cfi_startproc
 167              	.LVL21:
1756:.\Generated_Source\PSoC4/Bootloader.c ****     uint32 fieldPtr;
1757:.\Generated_Source\PSoC4/Bootloader.c ****     uint8  fieldSize = 2u;
1758:.\Generated_Source\PSoC4/Bootloader.c ****     uint32 result = 0u;
1759:.\Generated_Source\PSoC4/Bootloader.c **** 
ARM GAS  C:\Users\kbuchi\AppData\Local\Temp\cc4AaGId.s 			page 35


1760:.\Generated_Source\PSoC4/Bootloader.c ****     switch (field)
 168              		.loc 1 1760 0
 169 0000 0138     		sub	r0, r0, #1
 170              	.LVL22:
1755:.\Generated_Source\PSoC4/Bootloader.c **** {
 171              		.loc 1 1755 0
 172 0002 08B5     		push	{r3, lr}
 173              		.cfi_def_cfa_offset 8
 174              		.cfi_offset 3, -8
 175              		.cfi_offset 14, -4
 176              		.loc 1 1760 0
 177 0004 0928     		cmp	r0, #9
 178 0006 2AD8     		bhi	.L15
 179 0008 C901     		lsl	r1, r1, #7
 180              	.LVL23:
1761:.\Generated_Source\PSoC4/Bootloader.c ****     {
1762:.\Generated_Source\PSoC4/Bootloader.c ****     case Bootloader_GET_BTLDB_CHECKSUM:
1763:.\Generated_Source\PSoC4/Bootloader.c ****         fieldPtr  = Bootloader_MD_BTLDB_CHECKSUM_OFFSET(appId);
1764:.\Generated_Source\PSoC4/Bootloader.c ****         fieldSize = 1u;
1765:.\Generated_Source\PSoC4/Bootloader.c ****         break;
1766:.\Generated_Source\PSoC4/Bootloader.c **** 
1767:.\Generated_Source\PSoC4/Bootloader.c ****     case Bootloader_GET_BTLDB_ADDR:
1768:.\Generated_Source\PSoC4/Bootloader.c ****         fieldPtr  = Bootloader_MD_BTLDB_ADDR_OFFSET(appId);
1769:.\Generated_Source\PSoC4/Bootloader.c ****     #if(!CY_PSOC3)
1770:.\Generated_Source\PSoC4/Bootloader.c ****         fieldSize = 4u;
1771:.\Generated_Source\PSoC4/Bootloader.c ****     #endif  /* (!CY_PSOC3) */
1772:.\Generated_Source\PSoC4/Bootloader.c ****         break;
1773:.\Generated_Source\PSoC4/Bootloader.c **** 
1774:.\Generated_Source\PSoC4/Bootloader.c ****     case Bootloader_GET_BTLDR_LAST_ROW:
1775:.\Generated_Source\PSoC4/Bootloader.c ****         fieldPtr  = Bootloader_MD_BTLDR_LAST_ROW_OFFSET(appId);
1776:.\Generated_Source\PSoC4/Bootloader.c ****         break;
1777:.\Generated_Source\PSoC4/Bootloader.c **** 
1778:.\Generated_Source\PSoC4/Bootloader.c ****     case Bootloader_GET_BTLDB_LENGTH:
1779:.\Generated_Source\PSoC4/Bootloader.c ****         fieldPtr  = Bootloader_MD_BTLDB_LENGTH_OFFSET(appId);
1780:.\Generated_Source\PSoC4/Bootloader.c ****     #if(!CY_PSOC3)
1781:.\Generated_Source\PSoC4/Bootloader.c ****         fieldSize = 4u;
1782:.\Generated_Source\PSoC4/Bootloader.c ****     #endif  /* (!CY_PSOC3) */
1783:.\Generated_Source\PSoC4/Bootloader.c ****         break;
1784:.\Generated_Source\PSoC4/Bootloader.c **** 
1785:.\Generated_Source\PSoC4/Bootloader.c ****     case Bootloader_GET_BTLDB_ACTIVE:
1786:.\Generated_Source\PSoC4/Bootloader.c ****         fieldPtr  = Bootloader_MD_BTLDB_ACTIVE_OFFSET(appId);
1787:.\Generated_Source\PSoC4/Bootloader.c ****         fieldSize = 1u;
1788:.\Generated_Source\PSoC4/Bootloader.c ****         break;
1789:.\Generated_Source\PSoC4/Bootloader.c **** 
1790:.\Generated_Source\PSoC4/Bootloader.c ****     case Bootloader_GET_BTLDB_STATUS:
1791:.\Generated_Source\PSoC4/Bootloader.c ****         fieldPtr  = Bootloader_MD_BTLDB_VERIFIED_OFFSET(appId);
1792:.\Generated_Source\PSoC4/Bootloader.c ****         fieldSize = 1u;
1793:.\Generated_Source\PSoC4/Bootloader.c ****         break;
1794:.\Generated_Source\PSoC4/Bootloader.c **** 
1795:.\Generated_Source\PSoC4/Bootloader.c ****     case Bootloader_GET_BTLDB_APP_VERSION:
1796:.\Generated_Source\PSoC4/Bootloader.c ****         fieldPtr  = Bootloader_MD_BTLDB_APP_VERSION_OFFSET(appId);
1797:.\Generated_Source\PSoC4/Bootloader.c ****         break;
1798:.\Generated_Source\PSoC4/Bootloader.c **** 
1799:.\Generated_Source\PSoC4/Bootloader.c ****     case Bootloader_GET_BTLDR_APP_VERSION:
1800:.\Generated_Source\PSoC4/Bootloader.c ****         fieldPtr  = Bootloader_MD_BTLDR_APP_VERSION_OFFSET(appId);
1801:.\Generated_Source\PSoC4/Bootloader.c ****         break;
1802:.\Generated_Source\PSoC4/Bootloader.c **** 
ARM GAS  C:\Users\kbuchi\AppData\Local\Temp\cc4AaGId.s 			page 36


1803:.\Generated_Source\PSoC4/Bootloader.c ****     case Bootloader_GET_BTLDB_APP_ID:
1804:.\Generated_Source\PSoC4/Bootloader.c ****         fieldPtr  = Bootloader_MD_BTLDB_APP_ID_OFFSET(appId);
1805:.\Generated_Source\PSoC4/Bootloader.c ****         break;
1806:.\Generated_Source\PSoC4/Bootloader.c **** 
1807:.\Generated_Source\PSoC4/Bootloader.c ****     case Bootloader_GET_BTLDB_APP_CUST_ID:
1808:.\Generated_Source\PSoC4/Bootloader.c ****         fieldPtr  = Bootloader_MD_BTLDB_APP_CUST_ID_OFFSET(appId);
 181              		.loc 1 1808 0
 182 000a 4942     		neg	r1, r1
1760:.\Generated_Source\PSoC4/Bootloader.c ****     switch (field)
 183              		.loc 1 1760 0
 184 000c FFF7FEFF 		bl	__gnu_thumb1_case_uqi
 185              	.L17:
 186 0010 05       		.byte	(.L16-.L17)/2
 187 0011 07       		.byte	(.L18-.L17)/2
 188 0012 09       		.byte	(.L19-.L17)/2
 189 0013 0B       		.byte	(.L20-.L17)/2
 190 0014 0D       		.byte	(.L21-.L17)/2
 191 0015 0F       		.byte	(.L22-.L17)/2
 192 0016 16       		.byte	(.L23-.L17)/2
 193 0017 14       		.byte	(.L24-.L17)/2
 194 0018 18       		.byte	(.L25-.L17)/2
 195 0019 1B       		.byte	(.L26-.L17)/2
 196              		.p2align 1
 197              	.L16:
1763:.\Generated_Source\PSoC4/Bootloader.c ****         fieldPtr  = Bootloader_MD_BTLDB_CHECKSUM_OFFSET(appId);
 198              		.loc 1 1763 0
 199 001a 154B     		ldr	r3, .L36
 200 001c 08E0     		b	.L32
 201              	.L18:
1768:.\Generated_Source\PSoC4/Bootloader.c ****         fieldPtr  = Bootloader_MD_BTLDB_ADDR_OFFSET(appId);
 202              		.loc 1 1768 0
 203 001e 154B     		ldr	r3, .L36+4
 204 0020 12E0     		b	.L34
 205              	.L19:
1775:.\Generated_Source\PSoC4/Bootloader.c ****         fieldPtr  = Bootloader_MD_BTLDR_LAST_ROW_OFFSET(appId);
 206              		.loc 1 1775 0
 207 0022 154B     		ldr	r3, .L36+8
 208 0024 0DE0     		b	.L33
 209              	.L20:
1779:.\Generated_Source\PSoC4/Bootloader.c ****         fieldPtr  = Bootloader_MD_BTLDB_LENGTH_OFFSET(appId);
 210              		.loc 1 1779 0
 211 0026 154B     		ldr	r3, .L36+12
 212 0028 0EE0     		b	.L34
 213              	.L21:
1786:.\Generated_Source\PSoC4/Bootloader.c ****         fieldPtr  = Bootloader_MD_BTLDB_ACTIVE_OFFSET(appId);
 214              		.loc 1 1786 0
 215 002a 154B     		ldr	r3, .L36+16
 216 002c 00E0     		b	.L32
 217              	.L22:
1791:.\Generated_Source\PSoC4/Bootloader.c ****         fieldPtr  = Bootloader_MD_BTLDB_VERIFIED_OFFSET(appId);
 218              		.loc 1 1791 0
 219 002e 154B     		ldr	r3, .L36+20
 220              	.L32:
 221 0030 C918     		add	r1, r1, r3
 222              	.LVL24:
1809:.\Generated_Source\PSoC4/Bootloader.c ****         fieldSize = 4u;
1810:.\Generated_Source\PSoC4/Bootloader.c ****         break;
ARM GAS  C:\Users\kbuchi\AppData\Local\Temp\cc4AaGId.s 			page 37


1811:.\Generated_Source\PSoC4/Bootloader.c **** 
1812:.\Generated_Source\PSoC4/Bootloader.c ****     default:
1813:.\Generated_Source\PSoC4/Bootloader.c ****         /* Should never be here */
1814:.\Generated_Source\PSoC4/Bootloader.c ****         CYASSERT(0u != 0u);
1815:.\Generated_Source\PSoC4/Bootloader.c ****         fieldPtr  = 0u;
1816:.\Generated_Source\PSoC4/Bootloader.c ****         break;
1817:.\Generated_Source\PSoC4/Bootloader.c ****     }
1818:.\Generated_Source\PSoC4/Bootloader.c **** 
1819:.\Generated_Source\PSoC4/Bootloader.c **** 
1820:.\Generated_Source\PSoC4/Bootloader.c ****     if (1u == fieldSize)
1821:.\Generated_Source\PSoC4/Bootloader.c ****     {
1822:.\Generated_Source\PSoC4/Bootloader.c ****         result =  (uint32) CY_GET_XTND_REG8((volatile uint8 *)fieldPtr);
 223              		.loc 1 1822 0
 224 0032 0878     		ldrb	r0, [r1]
 225 0034 C0B2     		uxtb	r0, r0
 226              	.LVL25:
 227 0036 1AE0     		b	.L31
 228              	.LVL26:
 229              	.L24:
1796:.\Generated_Source\PSoC4/Bootloader.c ****         fieldPtr  = Bootloader_MD_BTLDB_APP_VERSION_OFFSET(appId);
 230              		.loc 1 1796 0
 231 0038 134B     		ldr	r3, .L36+24
 232 003a 02E0     		b	.L33
 233              	.L23:
1800:.\Generated_Source\PSoC4/Bootloader.c ****         fieldPtr  = Bootloader_MD_BTLDR_APP_VERSION_OFFSET(appId);
 234              		.loc 1 1800 0
 235 003c 134B     		ldr	r3, .L36+28
 236 003e 00E0     		b	.L33
 237              	.L25:
1804:.\Generated_Source\PSoC4/Bootloader.c ****         fieldPtr  = Bootloader_MD_BTLDB_APP_ID_OFFSET(appId);
 238              		.loc 1 1804 0
 239 0040 134B     		ldr	r3, .L36+32
 240              	.L33:
 241 0042 C918     		add	r1, r1, r3
 242              	.LVL27:
1805:.\Generated_Source\PSoC4/Bootloader.c ****         break;
 243              		.loc 1 1805 0
 244 0044 0FE0     		b	.L29
 245              	.LVL28:
 246              	.L26:
1808:.\Generated_Source\PSoC4/Bootloader.c ****         fieldPtr  = Bootloader_MD_BTLDB_APP_CUST_ID_OFFSET(appId);
 247              		.loc 1 1808 0
 248 0046 134B     		ldr	r3, .L36+36
 249              	.L34:
 250 0048 C918     		add	r1, r1, r3
 251              	.LVL29:
1823:.\Generated_Source\PSoC4/Bootloader.c ****     }
1824:.\Generated_Source\PSoC4/Bootloader.c **** 
1825:.\Generated_Source\PSoC4/Bootloader.c ****     #if(CY_PSOC3)   /* Big-endian */
1826:.\Generated_Source\PSoC4/Bootloader.c **** 
1827:.\Generated_Source\PSoC4/Bootloader.c ****         if (2u == fieldSize)
1828:.\Generated_Source\PSoC4/Bootloader.c ****         {
1829:.\Generated_Source\PSoC4/Bootloader.c ****             result =  (uint32) CY_GET_XTND_REG8((volatile uint8 *)(fieldPtr + 1u));
1830:.\Generated_Source\PSoC4/Bootloader.c ****             result |= (uint32) CY_GET_XTND_REG8((volatile uint8 *)(fieldPtr     )) <<  8u;
1831:.\Generated_Source\PSoC4/Bootloader.c ****         }
1832:.\Generated_Source\PSoC4/Bootloader.c **** 
1833:.\Generated_Source\PSoC4/Bootloader.c ****         if (4u == fieldSize)
ARM GAS  C:\Users\kbuchi\AppData\Local\Temp\cc4AaGId.s 			page 38


1834:.\Generated_Source\PSoC4/Bootloader.c ****         {
1835:.\Generated_Source\PSoC4/Bootloader.c ****             result =  (uint32) CY_GET_XTND_REG8((volatile uint8 *)(fieldPtr + 3u));
1836:.\Generated_Source\PSoC4/Bootloader.c ****             result |= (uint32) CY_GET_XTND_REG8((volatile uint8 *)(fieldPtr + 2u)) <<  8u;
1837:.\Generated_Source\PSoC4/Bootloader.c ****             result |= (uint32) CY_GET_XTND_REG8((volatile uint8 *)(fieldPtr + 1u)) << 16u;
1838:.\Generated_Source\PSoC4/Bootloader.c ****             result |= (uint32) CY_GET_XTND_REG8((volatile uint8 *)(fieldPtr     )) << 24u;
1839:.\Generated_Source\PSoC4/Bootloader.c ****         }
1840:.\Generated_Source\PSoC4/Bootloader.c **** 
1841:.\Generated_Source\PSoC4/Bootloader.c ****     #else   /* PSoC 4 and PSoC 5: Little-endian */
1842:.\Generated_Source\PSoC4/Bootloader.c **** 
1843:.\Generated_Source\PSoC4/Bootloader.c ****         if (2u == fieldSize)
1844:.\Generated_Source\PSoC4/Bootloader.c ****         {
1845:.\Generated_Source\PSoC4/Bootloader.c ****             result =  (uint32) CY_GET_XTND_REG8((volatile uint8 *) (fieldPtr     ));
1846:.\Generated_Source\PSoC4/Bootloader.c ****             result |= (uint32) CY_GET_XTND_REG8((volatile uint8 *) (fieldPtr + 1u)) <<  8u;
1847:.\Generated_Source\PSoC4/Bootloader.c ****         }
1848:.\Generated_Source\PSoC4/Bootloader.c **** 
1849:.\Generated_Source\PSoC4/Bootloader.c ****         if (4u == fieldSize)
1850:.\Generated_Source\PSoC4/Bootloader.c ****         {
1851:.\Generated_Source\PSoC4/Bootloader.c ****             result =  (uint32) CY_GET_XTND_REG8((volatile uint8 *)(fieldPtr     ));
 252              		.loc 1 1851 0
 253 004a 0B78     		ldrb	r3, [r1]
 254              	.LVL30:
1852:.\Generated_Source\PSoC4/Bootloader.c ****             result |= (uint32) CY_GET_XTND_REG8((volatile uint8 *)(fieldPtr + 1u)) <<  8u;
 255              		.loc 1 1852 0
 256 004c 4878     		ldrb	r0, [r1, #1]
 257              	.LVL31:
1853:.\Generated_Source\PSoC4/Bootloader.c ****             result |= (uint32) CY_GET_XTND_REG8((volatile uint8 *)(fieldPtr + 2u)) << 16u;
 258              		.loc 1 1853 0
 259 004e 8A78     		ldrb	r2, [r1, #2]
1852:.\Generated_Source\PSoC4/Bootloader.c ****             result |= (uint32) CY_GET_XTND_REG8((volatile uint8 *)(fieldPtr + 1u)) <<  8u;
 260              		.loc 1 1852 0
 261 0050 0002     		lsl	r0, r0, #8
 262              	.LVL32:
 263              		.loc 1 1853 0
 264 0052 1204     		lsl	r2, r2, #16
1852:.\Generated_Source\PSoC4/Bootloader.c ****             result |= (uint32) CY_GET_XTND_REG8((volatile uint8 *)(fieldPtr + 1u)) <<  8u;
 265              		.loc 1 1852 0
 266 0054 1043     		orr	r0, r2
 267              		.loc 1 1853 0
 268 0056 1843     		orr	r0, r3
 269              	.LVL33:
1854:.\Generated_Source\PSoC4/Bootloader.c ****             result |= (uint32) CY_GET_XTND_REG8((volatile uint8 *)(fieldPtr + 3u)) << 24u;
 270              		.loc 1 1854 0
 271 0058 CB78     		ldrb	r3, [r1, #3]
 272 005a 1B06     		lsl	r3, r3, #24
 273 005c 06E0     		b	.L35
 274              	.LVL34:
 275              	.L15:
1814:.\Generated_Source\PSoC4/Bootloader.c ****         CYASSERT(0u != 0u);
 276              		.loc 1 1814 0 discriminator 1
 277 005e 0020     		mov	r0, #0
 278 0060 FFF7FEFF 		bl	CyHalt
 279              	.LVL35:
1815:.\Generated_Source\PSoC4/Bootloader.c ****         fieldPtr  = 0u;
 280              		.loc 1 1815 0 discriminator 1
 281 0064 0021     		mov	r1, #0
 282              	.LVL36:
 283              	.L29:
ARM GAS  C:\Users\kbuchi\AppData\Local\Temp\cc4AaGId.s 			page 39


1845:.\Generated_Source\PSoC4/Bootloader.c ****             result =  (uint32) CY_GET_XTND_REG8((volatile uint8 *) (fieldPtr     ));
 284              		.loc 1 1845 0
 285 0066 0B78     		ldrb	r3, [r1]
 286              	.LVL37:
1846:.\Generated_Source\PSoC4/Bootloader.c ****             result |= (uint32) CY_GET_XTND_REG8((volatile uint8 *) (fieldPtr + 1u)) <<  8u;
 287              		.loc 1 1846 0
 288 0068 4878     		ldrb	r0, [r1, #1]
 289 006a 0002     		lsl	r0, r0, #8
 290              	.LVL38:
 291              	.L35:
 292              		.loc 1 1854 0
 293 006c 1843     		orr	r0, r3
 294              	.LVL39:
 295              	.L31:
1855:.\Generated_Source\PSoC4/Bootloader.c ****         }
1856:.\Generated_Source\PSoC4/Bootloader.c **** 
1857:.\Generated_Source\PSoC4/Bootloader.c ****     #endif /* (CY_PSOC3) */
1858:.\Generated_Source\PSoC4/Bootloader.c **** 
1859:.\Generated_Source\PSoC4/Bootloader.c ****     return (result);
1860:.\Generated_Source\PSoC4/Bootloader.c **** }
 296              		.loc 1 1860 0
 297              		@ sp needed
 298 006e 08BD     		pop	{r3, pc}
 299              	.L37:
 300              		.align	2
 301              	.L36:
 302 0070 C07F0000 		.word	32704
 303 0074 C17F0000 		.word	32705
 304 0078 C57F0000 		.word	32709
 305 007c C97F0000 		.word	32713
 306 0080 D07F0000 		.word	32720
 307 0084 D17F0000 		.word	32721
 308 0088 D67F0000 		.word	32726
 309 008c D27F0000 		.word	32722
 310 0090 D47F0000 		.word	32724
 311 0094 D87F0000 		.word	32728
 312              		.cfi_endproc
 313              	.LFE44:
 314              		.size	Bootloader_GetMetadata, .-Bootloader_GetMetadata
 315              		.section	.text.CyBtldr_CheckLaunch,"ax",%progbits
 316              		.align	1
 317              		.global	CyBtldr_CheckLaunch
 318              		.code	16
 319              		.thumb_func
 320              		.type	CyBtldr_CheckLaunch, %function
 321              	CyBtldr_CheckLaunch:
 322              	.LFB38:
 539:.\Generated_Source\PSoC4/Bootloader.c **** {
 323              		.loc 1 539 0
 324              		.cfi_startproc
 548:.\Generated_Source\PSoC4/Bootloader.c ****     if (0u == (Bootloader_RES_CAUSE_REG & Bootloader_RES_CAUSE_RESET_SOFT))
 325              		.loc 1 548 0
 326 0000 0C4B     		ldr	r3, .L46
 539:.\Generated_Source\PSoC4/Bootloader.c **** {
 327              		.loc 1 539 0
 328 0002 10B5     		push	{r4, lr}
 329              		.cfi_def_cfa_offset 8
ARM GAS  C:\Users\kbuchi\AppData\Local\Temp\cc4AaGId.s 			page 40


 330              		.cfi_offset 4, -8
 331              		.cfi_offset 14, -4
 548:.\Generated_Source\PSoC4/Bootloader.c ****     if (0u == (Bootloader_RES_CAUSE_REG & Bootloader_RES_CAUSE_RESET_SOFT))
 332              		.loc 1 548 0
 333 0004 1A68     		ldr	r2, [r3]
 334 0006 1023     		mov	r3, #16
 335 0008 1A40     		and	r2, r3
 336 000a 0B4B     		ldr	r3, .L46+4
 337 000c 00D1     		bne	.L39
 550:.\Generated_Source\PSoC4/Bootloader.c ****         cyBtldrRunType = 0u;
 338              		.loc 1 550 0
 339 000e 1A60     		str	r2, [r3]
 340              	.L39:
 556:.\Generated_Source\PSoC4/Bootloader.c ****     if (Bootloader_GET_RUN_TYPE == Bootloader_START_APP)
 341              		.loc 1 556 0
 342 0010 1A68     		ldr	r2, [r3]
 343 0012 802A     		cmp	r2, #128
 344 0014 0DD1     		bne	.L38
 558:.\Generated_Source\PSoC4/Bootloader.c ****         Bootloader_SET_RUN_TYPE(0u);
 345              		.loc 1 558 0
 346 0016 0024     		mov	r4, #0
 566:.\Generated_Source\PSoC4/Bootloader.c ****         if(0u != Bootloader_GetMetadata(Bootloader_GET_BTLDB_ADDR, Bootloader_activeApp))
 347              		.loc 1 566 0
 348 0018 0220     		mov	r0, #2
 349 001a 211C     		mov	r1, r4
 558:.\Generated_Source\PSoC4/Bootloader.c ****         Bootloader_SET_RUN_TYPE(0u);
 350              		.loc 1 558 0
 351 001c 1C60     		str	r4, [r3]
 566:.\Generated_Source\PSoC4/Bootloader.c ****         if(0u != Bootloader_GetMetadata(Bootloader_GET_BTLDB_ADDR, Bootloader_activeApp))
 352              		.loc 1 566 0
 353 001e FFF7FEFF 		bl	Bootloader_GetMetadata
 354              	.LVL40:
 355 0022 A042     		cmp	r0, r4
 356 0024 05D0     		beq	.L38
 569:.\Generated_Source\PSoC4/Bootloader.c ****             Bootloader_LaunchBootloadable(Bootloader_GetMetadata(Bootloader_GET_BTLDB_ADDR,
 357              		.loc 1 569 0
 358 0026 211C     		mov	r1, r4
 359 0028 0220     		mov	r0, #2
 360 002a FFF7FEFF 		bl	Bootloader_GetMetadata
 361              	.LVL41:
 362 002e FFF7FEFF 		bl	Bootloader_LaunchBootloadable
 363              	.LVL42:
 364              	.L38:
 573:.\Generated_Source\PSoC4/Bootloader.c **** }
 365              		.loc 1 573 0
 366              		@ sp needed
 367 0032 10BD     		pop	{r4, pc}
 368              	.L47:
 369              		.align	2
 370              	.L46:
 371 0034 00030B40 		.word	1074463488
 372 0038 00000000 		.word	cyBtldrRunType
 373              		.cfi_endproc
 374              	.LFE38:
 375              		.size	CyBtldr_CheckLaunch, .-CyBtldr_CheckLaunch
 376              		.section	.text.Bootloader_ValidateBootloadable,"ax",%progbits
 377              		.align	1
ARM GAS  C:\Users\kbuchi\AppData\Local\Temp\cc4AaGId.s 			page 41


 378              		.global	Bootloader_ValidateBootloadable
 379              		.code	16
 380              		.thumb_func
 381              		.type	Bootloader_ValidateBootloadable, %function
 382              	Bootloader_ValidateBootloadable:
 383              	.LFB40:
 634:.\Generated_Source\PSoC4/Bootloader.c ****     {
 384              		.loc 1 634 0
 385              		.cfi_startproc
 386              	.LVL43:
 387 0000 F8B5     		push	{r3, r4, r5, r6, r7, lr}
 388              		.cfi_def_cfa_offset 24
 389              		.cfi_offset 3, -24
 390              		.cfi_offset 4, -20
 391              		.cfi_offset 5, -16
 392              		.cfi_offset 6, -12
 393              		.cfi_offset 7, -8
 394              		.cfi_offset 14, -4
 634:.\Generated_Source\PSoC4/Bootloader.c ****     {
 395              		.loc 1 634 0
 396 0002 051C     		mov	r5, r0
 637:.\Generated_Source\PSoC4/Bootloader.c ****         uint32 CYDATA end   = Bootloader_FIRST_APP_BYTE(appId) +
 397              		.loc 1 637 0
 398 0004 291C     		mov	r1, r5
 399 0006 0320     		mov	r0, #3
 400              	.LVL44:
 401 0008 FFF7FEFF 		bl	Bootloader_GetMetadata
 402              	.LVL45:
 638:.\Generated_Source\PSoC4/Bootloader.c ****                                 Bootloader_GetMetadata(Bootloader_GET_BTLDB_LENGTH,
 403              		.loc 1 638 0
 404 000c 291C     		mov	r1, r5
 637:.\Generated_Source\PSoC4/Bootloader.c ****         uint32 CYDATA end   = Bootloader_FIRST_APP_BYTE(appId) +
 405              		.loc 1 637 0
 406 000e 041C     		mov	r4, r0
 638:.\Generated_Source\PSoC4/Bootloader.c ****                                 Bootloader_GetMetadata(Bootloader_GET_BTLDB_LENGTH,
 407              		.loc 1 638 0
 408 0010 0420     		mov	r0, #4
 409 0012 FFF7FEFF 		bl	Bootloader_GetMetadata
 410              	.LVL46:
 637:.\Generated_Source\PSoC4/Bootloader.c ****         uint32 CYDATA end   = Bootloader_FIRST_APP_BYTE(appId) +
 411              		.loc 1 637 0
 412 0016 671C     		add	r7, r4, #1
 413 0018 FF01     		lsl	r7, r7, #7
 414 001a 3F18     		add	r7, r7, r0
 415              	.LVL47:
 668:.\Generated_Source\PSoC4/Bootloader.c ****         for(idx = Bootloader_FIRST_APP_BYTE(appId); idx < end; ++idx)
 416              		.loc 1 668 0
 417 001c 291C     		mov	r1, r5
 418 001e 0320     		mov	r0, #3
 419 0020 FFF7FEFF 		bl	Bootloader_GetMetadata
 420              	.LVL48:
 642:.\Generated_Source\PSoC4/Bootloader.c ****         uint8  CYDATA calcedChecksum = 0u;
 421              		.loc 1 642 0
 422 0024 0024     		mov	r4, #0
 668:.\Generated_Source\PSoC4/Bootloader.c ****         for(idx = Bootloader_FIRST_APP_BYTE(appId); idx < end; ++idx)
 423              		.loc 1 668 0
 424 0026 0130     		add	r0, r0, #1
ARM GAS  C:\Users\kbuchi\AppData\Local\Temp\cc4AaGId.s 			page 42


 425 0028 C001     		lsl	r0, r0, #7
 426              	.LVL49:
 641:.\Generated_Source\PSoC4/Bootloader.c ****         CYBIT         valid = 0u; /* Assume bad flash image */
 427              		.loc 1 641 0
 428 002a 261C     		mov	r6, r4
 429              	.LVL50:
 430              	.L49:
 668:.\Generated_Source\PSoC4/Bootloader.c ****         for(idx = Bootloader_FIRST_APP_BYTE(appId); idx < end; ++idx)
 431              		.loc 1 668 0 discriminator 1
 432 002c B842     		cmp	r0, r7
 433 002e 09D2     		bcs	.L56
 434              	.LBB7:
 670:.\Generated_Source\PSoC4/Bootloader.c ****             uint8 CYDATA curByte = Bootloader_GET_CODE_BYTE(idx);
 435              		.loc 1 670 0
 436 0030 0378     		ldrb	r3, [r0]
 437              	.LVL51:
 672:.\Generated_Source\PSoC4/Bootloader.c ****             if((curByte != 0u) && (curByte != 0xFFu))
 438              		.loc 1 672 0
 439 0032 5A1E     		sub	r2, r3, #1
 440 0034 D2B2     		uxtb	r2, r2
 441 0036 FD2A     		cmp	r2, #253
 442 0038 00D8     		bhi	.L50
 674:.\Generated_Source\PSoC4/Bootloader.c ****                 valid = 1u;
 443              		.loc 1 674 0
 444 003a 0126     		mov	r6, #1
 445              	.LVL52:
 446              	.L50:
 677:.\Generated_Source\PSoC4/Bootloader.c ****             calcedChecksum += curByte;
 447              		.loc 1 677 0
 448 003c 1C19     		add	r4, r3, r4
 449              	.LVL53:
 450 003e E4B2     		uxtb	r4, r4
 451              	.LVL54:
 452              	.LBE7:
 668:.\Generated_Source\PSoC4/Bootloader.c ****         for(idx = Bootloader_FIRST_APP_BYTE(appId); idx < end; ++idx)
 453              		.loc 1 668 0
 454 0040 0130     		add	r0, r0, #1
 455              	.LVL55:
 456 0042 F3E7     		b	.L49
 457              	.LVL56:
 458              	.L56:
 709:.\Generated_Source\PSoC4/Bootloader.c ****         if((calcedChecksum != Bootloader_GetMetadata(Bootloader_GET_BTLDB_CHECKSUM, appId)) ||
 459              		.loc 1 709 0
 460 0044 0120     		mov	r0, #1
 461              	.LVL57:
 462 0046 291C     		mov	r1, r5
 463 0048 FFF7FEFF 		bl	Bootloader_GetMetadata
 464              	.LVL58:
 706:.\Generated_Source\PSoC4/Bootloader.c ****         calcedChecksum = ( uint8 )1u + ( uint8 )(~calcedChecksum);
 465              		.loc 1 706 0
 466 004c 6442     		neg	r4, r4
 467              	.LVL59:
 709:.\Generated_Source\PSoC4/Bootloader.c ****         if((calcedChecksum != Bootloader_GetMetadata(Bootloader_GET_BTLDB_CHECKSUM, appId)) ||
 468              		.loc 1 709 0
 469 004e E4B2     		uxtb	r4, r4
 470              	.LVL60:
 712:.\Generated_Source\PSoC4/Bootloader.c ****             return(CYRET_BAD_DATA);
ARM GAS  C:\Users\kbuchi\AppData\Local\Temp\cc4AaGId.s 			page 43


 471              		.loc 1 712 0
 472 0050 0623     		mov	r3, #6
 709:.\Generated_Source\PSoC4/Bootloader.c ****         if((calcedChecksum != Bootloader_GetMetadata(Bootloader_GET_BTLDB_CHECKSUM, appId)) ||
 473              		.loc 1 709 0
 474 0052 8442     		cmp	r4, r0
 475 0054 03D1     		bne	.L52
 722:.\Generated_Source\PSoC4/Bootloader.c ****         return(CYRET_SUCCESS);
 476              		.loc 1 722 0 discriminator 1
 477 0056 7242     		neg	r2, r6
 478 0058 5641     		adc	r6, r6, r2
 479              	.LVL61:
 480 005a 7642     		neg	r6, r6
 481 005c 3340     		and	r3, r6
 482              	.L52:
 723:.\Generated_Source\PSoC4/Bootloader.c **** }
 483              		.loc 1 723 0
 484 005e 181C     		mov	r0, r3
 485              		@ sp needed
 486              	.LVL62:
 487 0060 F8BD     		pop	{r3, r4, r5, r6, r7, pc}
 488              		.cfi_endproc
 489              	.LFE40:
 490              		.size	Bootloader_ValidateBootloadable, .-Bootloader_ValidateBootloadable
 491              		.section	.text.Bootloader_Exit,"ax",%progbits
 492              		.align	1
 493              		.global	Bootloader_Exit
 494              		.code	16
 495              		.thumb_func
 496              		.type	Bootloader_Exit, %function
 497              	Bootloader_Exit:
 498              	.LFB37:
 487:.\Generated_Source\PSoC4/Bootloader.c **** {
 499              		.loc 1 487 0
 500              		.cfi_startproc
 501              	.LVL63:
 502 0000 38B5     		push	{r3, r4, r5, lr}
 503              		.cfi_def_cfa_offset 16
 504              		.cfi_offset 3, -16
 505              		.cfi_offset 4, -12
 506              		.cfi_offset 5, -8
 507              		.cfi_offset 14, -4
 487:.\Generated_Source\PSoC4/Bootloader.c **** {
 508              		.loc 1 487 0
 509 0002 051C     		mov	r5, r0
 510 0004 094C     		ldr	r4, .L62
 488:.\Generated_Source\PSoC4/Bootloader.c ****     if(Bootloader_EXIT_TO_BTLDR == appId)
 511              		.loc 1 488 0
 512 0006 0228     		cmp	r0, #2
 513 0008 0BD0     		beq	.L60
 494:.\Generated_Source\PSoC4/Bootloader.c ****         if(CYRET_SUCCESS == Bootloader_ValidateBootloadable(appId))
 514              		.loc 1 494 0
 515 000a FFF7FEFF 		bl	Bootloader_ValidateBootloadable
 516              	.LVL64:
 517 000e 0028     		cmp	r0, #0
 518 0010 07D1     		bne	.L60
 519              	.LVL65:
 520              	.LBB8:
ARM GAS  C:\Users\kbuchi\AppData\Local\Temp\cc4AaGId.s 			page 44


 500:.\Generated_Source\PSoC4/Bootloader.c ****                 Bootloader_SetFlashByte((uint32) Bootloader_MD_BTLDB_ACTIVE_OFFSET(idx),
 521              		.loc 1 500 0 discriminator 2
 522 0012 6942     		neg	r1, r5
 523 0014 6941     		adc	r1, r1, r5
 524 0016 C9B2     		uxtb	r1, r1
 525 0018 0548     		ldr	r0, .L62+4
 526 001a FFF7FEFF 		bl	Bootloader_SetFlashByte
 527              	.LVL66:
 508:.\Generated_Source\PSoC4/Bootloader.c ****             Bootloader_SET_RUN_TYPE(Bootloader_SCHEDULE_BTLDB);
 528              		.loc 1 508 0 discriminator 2
 529 001e 8023     		mov	r3, #128
 530 0020 00E0     		b	.L61
 531              	.LVL67:
 532              	.L60:
 533              	.LBE8:
 512:.\Generated_Source\PSoC4/Bootloader.c ****             Bootloader_SET_RUN_TYPE(0u);
 534              		.loc 1 512 0
 535 0022 0023     		mov	r3, #0
 536              	.L61:
 537 0024 2360     		str	r3, [r4]
 517:.\Generated_Source\PSoC4/Bootloader.c **** }
 538              		.loc 1 517 0
 539              		@ sp needed
 516:.\Generated_Source\PSoC4/Bootloader.c ****     CySoftwareReset();
 540              		.loc 1 516 0
 541 0026 FFF7FEFF 		bl	CySoftwareReset
 542              	.LVL68:
 517:.\Generated_Source\PSoC4/Bootloader.c **** }
 543              		.loc 1 517 0
 544 002a 38BD     		pop	{r3, r4, r5, pc}
 545              	.L63:
 546              		.align	2
 547              	.L62:
 548 002c 00000000 		.word	cyBtldrRunType
 549 0030 D07F0000 		.word	32720
 550              		.cfi_endproc
 551              	.LFE37:
 552              		.size	Bootloader_Exit, .-Bootloader_Exit
 553              		.section	.text.Bootloader_HostLink.constprop.0,"ax",%progbits
 554              		.align	1
 555              		.code	16
 556              		.thumb_func
 557              		.type	Bootloader_HostLink.constprop.0, %function
 558              	Bootloader_HostLink.constprop.0:
 559              	.LFB45:
 744:.\Generated_Source\PSoC4/Bootloader.c **** static void Bootloader_HostLink(uint8 timeOut) 
 560              		.loc 1 744 0
 561              		.cfi_startproc
 562              	.LVL69:
 563 0000 F0B5     		push	{r4, r5, r6, r7, lr}
 564              		.cfi_def_cfa_offset 20
 565              		.cfi_offset 4, -20
 566              		.cfi_offset 5, -16
 567              		.cfi_offset 6, -12
 568              		.cfi_offset 7, -8
 569              		.cfi_offset 14, -4
 570 0002 A44C     		ldr	r4, .L128
ARM GAS  C:\Users\kbuchi\AppData\Local\Temp\cc4AaGId.s 			page 45


 571 0004 A544     		add	sp, sp, r4
 572              		.cfi_def_cfa_offset 648
 800:.\Generated_Source\PSoC4/Bootloader.c ****     CyBtldrCommStart();
 573              		.loc 1 800 0
 574 0006 FFF7FEFF 		bl	CyBtldrCommStart
 575              	.LVL70:
 803:.\Generated_Source\PSoC4/Bootloader.c ****     CyGlobalIntEnable;
 576              		.loc 1 803 0
 577              	@ 803 ".\Generated_Source\PSoC4\Bootloader.c" 1
 578 000a 62B6     		CPSIE   i
 579              	@ 0 "" 2
 759:.\Generated_Source\PSoC4/Bootloader.c ****     CYBIT     communicationState = Bootloader_COMMUNICATION_STATE_IDLE;
 580              		.loc 1 759 0
 581              		.code	16
 582 000c 0026     		mov	r6, #0
 583 000e 0096     		str	r6, [sp]
 584              	.LVL71:
 585              	.L109:
 586              	.LBB20:
1379:.\Generated_Source\PSoC4/Bootloader.c ****                     dataOffset = 0u;
 587              		.loc 1 1379 0
 588 0010 0025     		mov	r5, #0
 589              	.L67:
 590              	.LBE20:
 811:.\Generated_Source\PSoC4/Bootloader.c ****             readStat = CyBtldrCommRead(packetBuffer,
 591              		.loc 1 811 0
 592 0012 06AC     		add	r4, sp, #24
 593 0014 03AE     		add	r6, sp, #12
 594 0016 9621     		mov	r1, #150
 595 0018 201C     		mov	r0, r4
 596 001a 4900     		lsl	r1, r1, #1
 597 001c 321C     		mov	r2, r6
 598 001e FF23     		mov	r3, #255
 599 0020 FFF7FEFF 		bl	CyBtldrCommRead
 600              	.LVL72:
 820:.\Generated_Source\PSoC4/Bootloader.c ****         } while ( (0u != timeOutCnt) && (readStat != CYRET_SUCCESS) );
 601              		.loc 1 820 0
 602 0024 0028     		cmp	r0, #0
 603 0026 F4D1     		bne	.L67
 828:.\Generated_Source\PSoC4/Bootloader.c ****         if((numberRead < Bootloader_MIN_PKT_SIZE) ||
 604              		.loc 1 828 0
 605 0028 3188     		ldrh	r1, [r6]
 606 002a 0629     		cmp	r1, #6
 607 002c 00D8     		bhi	.LCB574
 608 002e 8AE0     		b	.L93	@long jump
 609              	.LCB574:
 610 0030 2278     		ldrb	r2, [r4]
 831:.\Generated_Source\PSoC4/Bootloader.c ****             ackCode = Bootloader_ERR_DATA;
 611              		.loc 1 831 0
 612 0032 0423     		mov	r3, #4
 828:.\Generated_Source\PSoC4/Bootloader.c ****         if((numberRead < Bootloader_MIN_PKT_SIZE) ||
 613              		.loc 1 828 0
 614 0034 012A     		cmp	r2, #1
 615 0036 54D1     		bne	.L121
 835:.\Generated_Source\PSoC4/Bootloader.c ****             pktSize = ((uint16)((uint16)packetBuffer[Bootloader_SIZE_ADDR + 1u] << 8u)) |
 616              		.loc 1 835 0
 617 0038 E778     		ldrb	r7, [r4, #3]
ARM GAS  C:\Users\kbuchi\AppData\Local\Temp\cc4AaGId.s 			page 46


 618 003a A278     		ldrb	r2, [r4, #2]
 619 003c 3F02     		lsl	r7, r7, #8
 620 003e 1743     		orr	r7, r2
 621              	.LVL73:
 838:.\Generated_Source\PSoC4/Bootloader.c ****             pktChecksum = ((uint16)((uint16)packetBuffer[Bootloader_CHK_ADDR(pktSize) + 1u] << 8u))
 622              		.loc 1 838 0
 623 0040 E219     		add	r2, r4, r7
 624 0042 5679     		ldrb	r6, [r2, #5]
 625 0044 B446     		mov	ip, r6
 839:.\Generated_Source\PSoC4/Bootloader.c ****                                    packetBuffer[Bootloader_CHK_ADDR(pktSize)];
 626              		.loc 1 839 0
 627 0046 1679     		ldrb	r6, [r2, #4]
 628 0048 0196     		str	r6, [sp, #4]
 629              	.LVL74:
 841:.\Generated_Source\PSoC4/Bootloader.c ****             if((pktSize + Bootloader_MIN_PKT_SIZE) > numberRead)
 630              		.loc 1 841 0
 631 004a FE1D     		add	r6, r7, #7
 632 004c 8E42     		cmp	r6, r1
 633 004e 7FD8     		bhi	.L95
 845:.\Generated_Source\PSoC4/Bootloader.c ****             else if(packetBuffer[Bootloader_EOP_ADDR(pktSize)] != Bootloader_EOP)
 634              		.loc 1 845 0
 635 0050 9279     		ldrb	r2, [r2, #6]
 636 0052 172A     		cmp	r2, #23
 637 0054 45D1     		bne	.L121
 849:.\Generated_Source\PSoC4/Bootloader.c ****             else if(pktChecksum != Bootloader_CalcPacketChecksum(packetBuffer,
 638              		.loc 1 849 0
 639 0056 FB18     		add	r3, r7, r3
 640              	.LVL75:
 641              	.L120:
 642              	.LBB27:
 643              	.LBB28:
 153:.\Generated_Source\PSoC4/Bootloader.c ****             size--;
 644              		.loc 1 153 0
 645 0058 9BB2     		uxth	r3, r3
 646              	.LVL76:
 150:.\Generated_Source\PSoC4/Bootloader.c ****         while (size > 0u)
 647              		.loc 1 150 0
 648 005a 002B     		cmp	r3, #0
 649 005c 08D0     		beq	.L124
 152:.\Generated_Source\PSoC4/Bootloader.c ****             sum += buffer[size - 1u];
 650              		.loc 1 152 0
 651 005e 9CA9     		add	r1, sp, #624
 652 0060 8D4E     		ldr	r6, .L128+4
 653 0062 CA18     		add	r2, r1, r3
 654 0064 9219     		add	r2, r2, r6
 655 0066 1278     		ldrb	r2, [r2]
 153:.\Generated_Source\PSoC4/Bootloader.c ****             size--;
 656              		.loc 1 153 0
 657 0068 013B     		sub	r3, r3, #1
 658              	.LVL77:
 152:.\Generated_Source\PSoC4/Bootloader.c ****             sum += buffer[size - 1u];
 659              		.loc 1 152 0
 660 006a 8018     		add	r0, r0, r2
 661              	.LVL78:
 662 006c 80B2     		uxth	r0, r0
 663              	.LVL79:
 664 006e F3E7     		b	.L120
ARM GAS  C:\Users\kbuchi\AppData\Local\Temp\cc4AaGId.s 			page 47


 665              	.LVL80:
 666              	.L124:
 667              	.LBE28:
 668              	.LBE27:
 849:.\Generated_Source\PSoC4/Bootloader.c ****             else if(pktChecksum != Bootloader_CalcPacketChecksum(packetBuffer,
 669              		.loc 1 849 0
 670 0070 019B     		ldr	r3, [sp, #4]
 671              	.LVL81:
 838:.\Generated_Source\PSoC4/Bootloader.c ****             pktChecksum = ((uint16)((uint16)packetBuffer[Bootloader_CHK_ADDR(pktSize) + 1u] << 8u))
 672              		.loc 1 838 0
 673 0072 6146     		mov	r1, ip
 674              	.LBB30:
 675              	.LBB29:
 156:.\Generated_Source\PSoC4/Bootloader.c ****         return(( uint16 )1u + ( uint16 )(~sum));
 676              		.loc 1 156 0
 677 0074 4042     		neg	r0, r0
 678              	.LVL82:
 679              	.LBE29:
 680              	.LBE30:
 838:.\Generated_Source\PSoC4/Bootloader.c ****             pktChecksum = ((uint16)((uint16)packetBuffer[Bootloader_CHK_ADDR(pktSize) + 1u] << 8u))
 681              		.loc 1 838 0
 682 0076 0A02     		lsl	r2, r1, #8
 849:.\Generated_Source\PSoC4/Bootloader.c ****             else if(pktChecksum != Bootloader_CalcPacketChecksum(packetBuffer,
 683              		.loc 1 849 0
 684 0078 80B2     		uxth	r0, r0
 685              	.LVL83:
 686 007a 1A43     		orr	r2, r3
 852:.\Generated_Source\PSoC4/Bootloader.c ****                 ackCode = Bootloader_ERR_CHECKSUM;
 687              		.loc 1 852 0
 688 007c 0823     		mov	r3, #8
 849:.\Generated_Source\PSoC4/Bootloader.c ****             else if(pktChecksum != Bootloader_CalcPacketChecksum(packetBuffer,
 689              		.loc 1 849 0
 690 007e 8242     		cmp	r2, r0
 691 0080 2FD1     		bne	.L121
 692              	.LVL84:
 693 0082 67E0     		b	.L125
 694              	.LVL85:
 695              	.L76:
 696              	.LBB31:
1029:.\Generated_Source\PSoC4/Bootloader.c ****                 if (Bootloader_COMMAND_ERASE == packetBuffer[Bootloader_CMD_ADDR])
 697              		.loc 1 1029 0
 698 0084 342B     		cmp	r3, #52
 699 0086 00D0     		beq	.LCB657
 700 0088 9DE0     		b	.L77	@long jump
 701              	.LCB657:
1031:.\Generated_Source\PSoC4/Bootloader.c ****                     if ((Bootloader_COMMUNICATION_STATE_ACTIVE == communicationState) && (pktSize =
 702              		.loc 1 1031 0
 703 008a 0099     		ldr	r1, [sp]
 704              	.LVL86:
 705 008c 0129     		cmp	r1, #1
 706 008e 5AD1     		bne	.L93
 707 0090 032F     		cmp	r7, #3
 708 0092 58D1     		bne	.L93
 709              	.LVL87:
1053:.\Generated_Source\PSoC4/Bootloader.c ****                             (void) memset(dataBuffer, 0, (uint32) dataOffset);
 710              		.loc 1 1053 0
 711 0094 51A8     		add	r0, sp, #324
ARM GAS  C:\Users\kbuchi\AppData\Local\Temp\cc4AaGId.s 			page 48


 712 0096 0021     		mov	r1, #0
 713 0098 8022     		mov	r2, #128
 714 009a FFF7FEFF 		bl	memset
 715              	.LVL88:
1047:.\Generated_Source\PSoC4/Bootloader.c ****                             dataOffset = Bootloader_FROW_SIZE;
 716              		.loc 1 1047 0
 717 009e 8025     		mov	r5, #128
 718              	.LVL89:
 719              	.L78:
1074:.\Generated_Source\PSoC4/Bootloader.c ****                         (void) memcpy(&dataBuffer[dataOffset],
 720              		.loc 1 1074 0
 721 00a0 51A9     		add	r1, sp, #324
 722 00a2 4819     		add	r0, r1, r5
 723 00a4 2639     		sub	r1, r1, #38
1079:.\Generated_Source\PSoC4/Bootloader.c ****                     dataOffset += (pktSize - 3u);
 724              		.loc 1 1079 0
 725 00a6 ED19     		add	r5, r5, r7
 726              	.LVL90:
1076:.\Generated_Source\PSoC4/Bootloader.c ****                                       (uint32) pktSize - 3u);
 727              		.loc 1 1076 0
 728 00a8 FA1E     		sub	r2, r7, #3
1074:.\Generated_Source\PSoC4/Bootloader.c ****                         (void) memcpy(&dataBuffer[dataOffset],
 729              		.loc 1 1074 0
 730 00aa FF39     		sub	r1, r1, #255
1103:.\Generated_Source\PSoC4/Bootloader.c ****                     if(dataOffset == pktSize)
 731              		.loc 1 1103 0
 732 00ac ADB2     		uxth	r5, r5
1074:.\Generated_Source\PSoC4/Bootloader.c ****                         (void) memcpy(&dataBuffer[dataOffset],
 733              		.loc 1 1074 0
 734 00ae FFF7FEFF 		bl	memcpy
 735              	.LVL91:
1103:.\Generated_Source\PSoC4/Bootloader.c ****                     if(dataOffset == pktSize)
 736              		.loc 1 1103 0
 737 00b2 832D     		cmp	r5, #131
 738 00b4 49D1     		bne	.L108
 739              	.LVL92:
 740              	.LBB21:
1109:.\Generated_Source\PSoC4/Bootloader.c ****                         dataOffset = ((uint16)((uint16)packetBuffer[Bootloader_DATA_ADDR + 2u] << 8
 741              		.loc 1 1109 0
 742 00b6 A079     		ldrb	r0, [r4, #6]
 743 00b8 6379     		ldrb	r3, [r4, #5]
 744 00ba 0002     		lsl	r0, r0, #8
 745 00bc 1843     		orr	r0, r3
1130:.\Generated_Source\PSoC4/Bootloader.c ****                         firstRow = (uint16) (*Bootloader_SizeBytesAccess / CYDEV_FLS_ROW_SIZE);
 746              		.loc 1 1130 0
 747 00be 774B     		ldr	r3, .L128+8
1122:.\Generated_Source\PSoC4/Bootloader.c ****                         row = (uint16)(btldrData * Bootloader_NUMBER_OF_ROWS_IN_ARRAY) + dataOffset
 748              		.loc 1 1122 0
 749 00c0 3602     		lsl	r6, r6, #8
 750              	.LVL93:
1130:.\Generated_Source\PSoC4/Bootloader.c ****                         firstRow = (uint16) (*Bootloader_SizeBytesAccess / CYDEV_FLS_ROW_SIZE);
 751              		.loc 1 1130 0
 752 00c2 1B68     		ldr	r3, [r3]
1122:.\Generated_Source\PSoC4/Bootloader.c ****                         row = (uint16)(btldrData * Bootloader_NUMBER_OF_ROWS_IN_ARRAY) + dataOffset
 753              		.loc 1 1122 0
 754 00c4 8019     		add	r0, r0, r6
1130:.\Generated_Source\PSoC4/Bootloader.c ****                         firstRow = (uint16) (*Bootloader_SizeBytesAccess / CYDEV_FLS_ROW_SIZE);
ARM GAS  C:\Users\kbuchi\AppData\Local\Temp\cc4AaGId.s 			page 49


 755              		.loc 1 1130 0
 756 00c6 1A68     		ldr	r2, [r3]
1122:.\Generated_Source\PSoC4/Bootloader.c ****                         row = (uint16)(btldrData * Bootloader_NUMBER_OF_ROWS_IN_ARRAY) + dataOffset
 757              		.loc 1 1122 0
 758 00c8 80B2     		uxth	r0, r0
 759              	.LVL94:
1130:.\Generated_Source\PSoC4/Bootloader.c ****                         firstRow = (uint16) (*Bootloader_SizeBytesAccess / CYDEV_FLS_ROW_SIZE);
 760              		.loc 1 1130 0
 761 00ca D309     		lsr	r3, r2, #7
 762 00cc 9BB2     		uxth	r3, r3
 763              	.LVL95:
1131:.\Generated_Source\PSoC4/Bootloader.c ****                         if ((*Bootloader_SizeBytesAccess % CYDEV_FLS_ROW_SIZE) != 0u)
 764              		.loc 1 1131 0
 765 00ce 5606     		lsl	r6, r2, #25
 766 00d0 01D0     		beq	.L79
1133:.\Generated_Source\PSoC4/Bootloader.c ****                             firstRow++;
 767              		.loc 1 1133 0
 768 00d2 0133     		add	r3, r3, #1
 769              	.LVL96:
 770 00d4 9BB2     		uxth	r3, r3
 771              	.LVL97:
 772              	.L79:
1137:.\Generated_Source\PSoC4/Bootloader.c ****                         if(row < firstRow)
 773              		.loc 1 1137 0
 774 00d6 9842     		cmp	r0, r3
 775 00d8 7BD2     		bcs	.L80
 776              	.LVL98:
 777              	.L81:
 778              	.LBE21:
 779              	.LBE31:
 860:.\Generated_Source\PSoC4/Bootloader.c ****         rspSize = 0u;
 780              		.loc 1 860 0
 781 00da 0127     		mov	r7, #1
 782 00dc 0097     		str	r7, [sp]
 783              	.LBB32:
 784              	.LBB22:
1140:.\Generated_Source\PSoC4/Bootloader.c ****                             dataOffset = 0u;
 785              		.loc 1 1140 0
 786 00de 0025     		mov	r5, #0
1139:.\Generated_Source\PSoC4/Bootloader.c ****                             ackCode = Bootloader_ERR_ROW;
 787              		.loc 1 1139 0
 788 00e0 0A23     		mov	r3, #10
 789              	.LVL99:
 790              	.L121:
 791              	.LBE22:
 792              	.LBE32:
 860:.\Generated_Source\PSoC4/Bootloader.c ****         rspSize = 0u;
 793              		.loc 1 860 0
 794 00e2 0021     		mov	r1, #0
 795              	.L73:
 796              	.LVL100:
 797              	.LBB33:
 798              	.LBB34:
1645:.\Generated_Source\PSoC4/Bootloader.c ****     buffer[Bootloader_SOP_ADDR]      = Bootloader_SOP;
 799              		.loc 1 1645 0
 800 00e4 0120     		mov	r0, #1
 801 00e6 2070     		strb	r0, [r4]
ARM GAS  C:\Users\kbuchi\AppData\Local\Temp\cc4AaGId.s 			page 50


1646:.\Generated_Source\PSoC4/Bootloader.c ****     buffer[Bootloader_CMD_ADDR]      = status;
 802              		.loc 1 1646 0
 803 00e8 6846     		mov	r0, sp
 804              	.LVL101:
 805 00ea 6A46     		mov	r2, sp
 806 00ec 4376     		strb	r3, [r0, #25]
1647:.\Generated_Source\PSoC4/Bootloader.c ****     buffer[Bootloader_SIZE_ADDR]     = LO8(size);
 807              		.loc 1 1647 0
 808 00ee 8176     		strb	r1, [r0, #26]
1648:.\Generated_Source\PSoC4/Bootloader.c ****     buffer[Bootloader_SIZE_ADDR + 1u] = HI8(size);
 809              		.loc 1 1648 0
 810 00f0 6B46     		mov	r3, sp
 811              	.LVL102:
 812 00f2 0020     		mov	r0, #0
 813              	.LVL103:
 814 00f4 0E32     		add	r2, r2, #14
 815              	.LVL104:
 816 00f6 D876     		strb	r0, [r3, #27]
1651:.\Generated_Source\PSoC4/Bootloader.c ****     checksum = Bootloader_CalcPacketChecksum(buffer, size + Bootloader_DATA_ADDR);
 817              		.loc 1 1651 0
 818 00f8 0B1D     		add	r3, r1, #4
 819              	.LVL105:
 820 00fa 1180     		strh	r1, [r2]
 821              	.LVL106:
 822 00fc 9BB2     		uxth	r3, r3
 823              	.LVL107:
 824              	.L91:
 825              	.LBB35:
 826              	.LBB36:
 152:.\Generated_Source\PSoC4/Bootloader.c ****             sum += buffer[size - 1u];
 827              		.loc 1 152 0
 828 00fe 9CAF     		add	r7, sp, #624
 829 0100 FE18     		add	r6, r7, r3
 830 0102 654F     		ldr	r7, .L128+4
 153:.\Generated_Source\PSoC4/Bootloader.c ****             size--;
 831              		.loc 1 153 0
 832 0104 013B     		sub	r3, r3, #1
 833              	.LVL108:
 152:.\Generated_Source\PSoC4/Bootloader.c ****             sum += buffer[size - 1u];
 834              		.loc 1 152 0
 835 0106 F619     		add	r6, r6, r7
 836 0108 3678     		ldrb	r6, [r6]
 153:.\Generated_Source\PSoC4/Bootloader.c ****             size--;
 837              		.loc 1 153 0
 838 010a 9BB2     		uxth	r3, r3
 839              	.LVL109:
 152:.\Generated_Source\PSoC4/Bootloader.c ****             sum += buffer[size - 1u];
 840              		.loc 1 152 0
 841 010c 8019     		add	r0, r0, r6
 842              	.LVL110:
 843 010e 80B2     		uxth	r0, r0
 844              	.LVL111:
 150:.\Generated_Source\PSoC4/Bootloader.c ****         while (size > 0u)
 845              		.loc 1 150 0
 846 0110 002B     		cmp	r3, #0
 847 0112 F4D1     		bne	.L91
 848              	.LBE36:
ARM GAS  C:\Users\kbuchi\AppData\Local\Temp\cc4AaGId.s 			page 51


 849              	.LBE35:
1653:.\Generated_Source\PSoC4/Bootloader.c ****     buffer[Bootloader_CHK_ADDR(size)]     = LO8(checksum);
 850              		.loc 1 1653 0
 851 0114 9CAE     		add	r6, sp, #624
 852 0116 624F     		ldr	r7, .L128+12
 853 0118 7318     		add	r3, r6, r1
 854              	.LVL112:
 855 011a DE19     		add	r6, r3, r7
 856              	.LBB39:
 857              	.LBB37:
 156:.\Generated_Source\PSoC4/Bootloader.c ****         return(( uint16 )1u + ( uint16 )(~sum));
 858              		.loc 1 156 0
 859 011c 4042     		neg	r0, r0
 860              	.LVL113:
 861              	.LBE37:
 862              	.LBE39:
1654:.\Generated_Source\PSoC4/Bootloader.c ****     buffer[Bootloader_CHK_ADDR(1u + size)] = HI8(checksum);
 863              		.loc 1 1654 0
 864 011e 614F     		ldr	r7, .L128+16
 865              	.LBB40:
 866              	.LBB38:
 156:.\Generated_Source\PSoC4/Bootloader.c ****         return(( uint16 )1u + ( uint16 )(~sum));
 867              		.loc 1 156 0
 868 0120 80B2     		uxth	r0, r0
 869              	.LVL114:
 870              	.LBE38:
 871              	.LBE40:
1653:.\Generated_Source\PSoC4/Bootloader.c ****     buffer[Bootloader_CHK_ADDR(size)]     = LO8(checksum);
 872              		.loc 1 1653 0
 873 0122 3070     		strb	r0, [r6]
1654:.\Generated_Source\PSoC4/Bootloader.c ****     buffer[Bootloader_CHK_ADDR(1u + size)] = HI8(checksum);
 874              		.loc 1 1654 0
 875 0124 DE19     		add	r6, r3, r7
 876 0126 000A     		lsr	r0, r0, #8
 877 0128 3070     		strb	r0, [r6]
1655:.\Generated_Source\PSoC4/Bootloader.c ****     buffer[Bootloader_EOP_ADDR(size)]     = Bootloader_EOP;
 878              		.loc 1 1655 0
 879 012a 5F48     		ldr	r0, .L128+20
1658:.\Generated_Source\PSoC4/Bootloader.c ****     return(CyBtldrCommWrite(buffer, size + Bootloader_MIN_PKT_SIZE, &size, 150u));
 880              		.loc 1 1658 0
 881 012c 0731     		add	r1, r1, #7
 882              	.LVL115:
1655:.\Generated_Source\PSoC4/Bootloader.c ****     buffer[Bootloader_EOP_ADDR(size)]     = Bootloader_EOP;
 883              		.loc 1 1655 0
 884 012e 1B18     		add	r3, r3, r0
 885 0130 1720     		mov	r0, #23
 886 0132 1870     		strb	r0, [r3]
1658:.\Generated_Source\PSoC4/Bootloader.c ****     return(CyBtldrCommWrite(buffer, size + Bootloader_MIN_PKT_SIZE, &size, 150u));
 887              		.loc 1 1658 0
 888 0134 89B2     		uxth	r1, r1
 889              	.LVL116:
 890 0136 201C     		mov	r0, r4
 891 0138 9623     		mov	r3, #150
 892 013a FFF7FEFF 		bl	CyBtldrCommWrite
 893              	.LVL117:
 894 013e 68E7     		b	.L67
 895              	.LVL118:
ARM GAS  C:\Users\kbuchi\AppData\Local\Temp\cc4AaGId.s 			page 52


 896              	.L72:
 897              	.LBE34:
 898              	.LBE33:
 899              	.LBB41:
 913:.\Generated_Source\PSoC4/Bootloader.c ****                 if((Bootloader_COMMUNICATION_STATE_ACTIVE == communicationState) && (pktSize == 0u)
 900              		.loc 1 913 0
 901 0140 009E     		ldr	r6, [sp]
 902 0142 012E     		cmp	r6, #1
 903 0144 1BD0     		beq	.L126
 904              	.LVL119:
 905              	.L93:
 906              	.LBE41:
 831:.\Generated_Source\PSoC4/Bootloader.c ****             ackCode = Bootloader_ERR_DATA;
 907              		.loc 1 831 0
 908 0146 0423     		mov	r3, #4
 909 0148 CBE7     		b	.L121
 910              	.LVL120:
 911              	.L108:
 912              	.LBB42:
1103:.\Generated_Source\PSoC4/Bootloader.c ****                     if(dataOffset == pktSize)
 913              		.loc 1 1103 0
 914 014a 0126     		mov	r6, #1
 915              	.LVL121:
 916 014c 0096     		str	r6, [sp]
1364:.\Generated_Source\PSoC4/Bootloader.c ****                     dataOffset = 0u;
 917              		.loc 1 1364 0
 918 014e 0025     		mov	r5, #0
 919              	.LVL122:
 920              	.L95:
 921              	.LBE42:
 843:.\Generated_Source\PSoC4/Bootloader.c ****                 ackCode = Bootloader_ERR_LENGTH;
 922              		.loc 1 843 0
 923 0150 0323     		mov	r3, #3
 924              	.LVL123:
 925 0152 C6E7     		b	.L121
 926              	.LVL124:
 927              	.L125:
 928              	.LBB43:
 866:.\Generated_Source\PSoC4/Bootloader.c ****             switch(packetBuffer[Bootloader_CMD_ADDR])
 929              		.loc 1 866 0
 930 0154 6378     		ldrb	r3, [r4, #1]
 863:.\Generated_Source\PSoC4/Bootloader.c ****             uint8 CYDATA btldrData = packetBuffer[Bootloader_DATA_ADDR];
 931              		.loc 1 863 0
 932 0156 2679     		ldrb	r6, [r4, #4]
 933              	.LVL125:
 866:.\Generated_Source\PSoC4/Bootloader.c ****             switch(packetBuffer[Bootloader_CMD_ADDR])
 934              		.loc 1 866 0
 935 0158 181C     		mov	r0, r3
 936 015a 3138     		sub	r0, r0, #49
 937 015c 0A28     		cmp	r0, #10
 938 015e 01D9     		bls	.L127
 939              	.L115:
1607:.\Generated_Source\PSoC4/Bootloader.c ****                 ackCode = Bootloader_ERR_CMD;
 940              		.loc 1 1607 0
 941 0160 0523     		mov	r3, #5
 942 0162 BEE7     		b	.L121
 943              	.L127:
ARM GAS  C:\Users\kbuchi\AppData\Local\Temp\cc4AaGId.s 			page 53


 866:.\Generated_Source\PSoC4/Bootloader.c ****             switch(packetBuffer[Bootloader_CMD_ADDR])
 944              		.loc 1 866 0
 945 0164 FFF7FEFF 		bl	__gnu_thumb1_case_shi
 946              	.L92:
 947 0168 ECFF     		.2byte	(.L72-.L92)/2
 948 016a 1400     		.2byte	(.L74-.L92)/2
 949 016c FCFF     		.2byte	(.L115-.L92)/2
 950 016e 8EFF     		.2byte	(.L76-.L92)/2
 951 0170 3F00     		.2byte	(.L82-.L92)/2
 952 0172 FCFF     		.2byte	(.L115-.L92)/2
 953 0174 4300     		.2byte	(.L84-.L92)/2
 954 0176 5400     		.2byte	(.L85-.L92)/2
 955 0178 8EFF     		.2byte	(.L76-.L92)/2
 956 017a 6300     		.2byte	(.L86-.L92)/2
 957 017c 8B00     		.2byte	(.L88-.L92)/2
 958              		.p2align 1
 959              	.L126:
 913:.\Generated_Source\PSoC4/Bootloader.c ****                 if((Bootloader_COMMUNICATION_STATE_ACTIVE == communicationState) && (pktSize == 0u)
 960              		.loc 1 913 0
 961 017e 002F     		cmp	r7, #0
 962 0180 E1D1     		bne	.L93
 916:.\Generated_Source\PSoC4/Bootloader.c ****                             (uint8)(Bootloader_ValidateBootloadable(Bootloader_activeApp) == CYRET_
 963              		.loc 1 916 0
 964 0182 381C     		mov	r0, r7
 965 0184 FFF7FEFF 		bl	Bootloader_ValidateBootloadable
 966              	.LVL126:
 967 0188 4342     		neg	r3, r0
 968 018a 4341     		adc	r3, r3, r0
 915:.\Generated_Source\PSoC4/Bootloader.c ****                     packetBuffer[Bootloader_DATA_ADDR] =
 969              		.loc 1 915 0
 970 018c 2371     		strb	r3, [r4, #4]
 971              	.LVL127:
 972 018e 73E0     		b	.L122
 973              	.LVL128:
 974              	.L74:
 937:.\Generated_Source\PSoC4/Bootloader.c ****                     if((Bootloader_COMMUNICATION_STATE_ACTIVE == communicationState) && (pktSize ==
 975              		.loc 1 937 0
 976 0190 0098     		ldr	r0, [sp]
 977 0192 0128     		cmp	r0, #1
 978 0194 D7D1     		bne	.L93
 979 0196 012F     		cmp	r7, #1
 980 0198 D5D1     		bne	.L93
 939:.\Generated_Source\PSoC4/Bootloader.c ****                         if(btldrData < CY_FLASH_NUMBER_ARRAYS)
 981              		.loc 1 939 0
 982 019a 002E     		cmp	r6, #0
 983 019c D3D1     		bne	.L93
 984              	.LBB23:
 956:.\Generated_Source\PSoC4/Bootloader.c ****                             ArrayIdBtlderEnds = (uint8)  (*Bootloader_SizeBytesAccess / CY_FLASH_SI
 985              		.loc 1 956 0
 986 019e 3F4B     		ldr	r3, .L128+8
 987 01a0 1B68     		ldr	r3, [r3]
 988 01a2 1B68     		ldr	r3, [r3]
 989              	.LVL129:
 990 01a4 DA0B     		lsr	r2, r3, #15
 958:.\Generated_Source\PSoC4/Bootloader.c ****                             if (btldrData == ArrayIdBtlderEnds)
 991              		.loc 1 958 0
 992 01a6 D2B2     		uxtb	r2, r2
ARM GAS  C:\Users\kbuchi\AppData\Local\Temp\cc4AaGId.s 			page 54


 960:.\Generated_Source\PSoC4/Bootloader.c ****                                 startRow = (uint16) (*Bootloader_SizeBytesAccess / CY_FLASH_SIZEOF_
 993              		.loc 1 960 0
 994 01a8 DB09     		lsr	r3, r3, #7
 995              	.LVL130:
 996 01aa DBB2     		uxtb	r3, r3
 958:.\Generated_Source\PSoC4/Bootloader.c ****                             if (btldrData == ArrayIdBtlderEnds)
 997              		.loc 1 958 0
 998 01ac 002A     		cmp	r2, #0
 999 01ae 01D0     		beq	.L75
 969:.\Generated_Source\PSoC4/Bootloader.c ****                                 startRow = Bootloader_NUMBER_OF_ROWS_IN_ARRAY;
 1000              		.loc 1 969 0
 1001 01b0 8023     		mov	r3, #128
 1002 01b2 5B00     		lsl	r3, r3, #1
 1003              	.L75:
 1004              	.LVL131:
 972:.\Generated_Source\PSoC4/Bootloader.c ****                             packetBuffer[Bootloader_DATA_ADDR]      = LO8(startRow);
 1005              		.loc 1 972 0
 1006 01b4 2371     		strb	r3, [r4, #4]
 1007              	.LVL132:
 973:.\Generated_Source\PSoC4/Bootloader.c ****                             packetBuffer[Bootloader_DATA_ADDR + 1u] = HI8(startRow);
 1008              		.loc 1 973 0
 1009 01b6 1B0A     		lsr	r3, r3, #8
 1010              	.LVL133:
 1011 01b8 6371     		strb	r3, [r4, #5]
 975:.\Generated_Source\PSoC4/Bootloader.c ****                             packetBuffer[Bootloader_DATA_ADDR + 2u] =
 1012              		.loc 1 975 0
 1013 01ba FF23     		mov	r3, #255
 1014 01bc A371     		strb	r3, [r4, #6]
 978:.\Generated_Source\PSoC4/Bootloader.c ****                             packetBuffer[Bootloader_DATA_ADDR + 3u] =
 1015              		.loc 1 978 0
 1016 01be 0023     		mov	r3, #0
 1017 01c0 E371     		strb	r3, [r4, #7]
 1018              	.LVL134:
 981:.\Generated_Source\PSoC4/Bootloader.c ****                             rspSize = 4u;
 1019              		.loc 1 981 0
 1020 01c2 0421     		mov	r1, #4
 1021              	.LVL135:
 1022 01c4 8EE7     		b	.L73
 1023              	.LVL136:
 1024              	.L77:
 1025              	.LBE23:
1065:.\Generated_Source\PSoC4/Bootloader.c ****                 if((Bootloader_COMMUNICATION_STATE_ACTIVE == communicationState) && (pktSize >= 3u)
 1026              		.loc 1 1065 0
 1027 01c6 009B     		ldr	r3, [sp]
 1028 01c8 012B     		cmp	r3, #1
 1029 01ca BCD1     		bne	.L93
 1030 01cc 022F     		cmp	r7, #2
 1031 01ce BAD9     		bls	.L93
 1032 01d0 66E7     		b	.L78
 1033              	.LVL137:
 1034              	.L80:
 1035              	.LBB24:
1338:.\Generated_Source\PSoC4/Bootloader.c ****                             ackCode = (CYRET_SUCCESS != CySysFlashWriteRow((uint32) row, dataBuffer
 1036              		.loc 1 1338 0
 1037 01d2 51A9     		add	r1, sp, #324
 1038 01d4 FFF7FEFF 		bl	CySysFlashWriteRow
 1039              	.LVL138:
ARM GAS  C:\Users\kbuchi\AppData\Local\Temp\cc4AaGId.s 			page 55


 1040 01d8 0028     		cmp	r0, #0
 1041 01da 00D0     		beq	.LCB1049
 1042 01dc 7DE7     		b	.L81	@long jump
 1043              	.LCB1049:
 1044 01de 0126     		mov	r6, #1
 1045 01e0 0096     		str	r6, [sp]
 1046              	.LBE24:
1364:.\Generated_Source\PSoC4/Bootloader.c ****                     dataOffset = 0u;
 1047              		.loc 1 1364 0
 1048 01e2 051C     		mov	r5, r0
 1049 01e4 12E0     		b	.L123
 1050              	.LVL139:
 1051              	.L82:
1376:.\Generated_Source\PSoC4/Bootloader.c ****                 if(Bootloader_COMMUNICATION_STATE_ACTIVE == communicationState)
 1052              		.loc 1 1376 0
 1053 01e6 009F     		ldr	r7, [sp]
 1054              	.LVL140:
 1055 01e8 012F     		cmp	r7, #1
 1056 01ea ACD1     		bne	.L93
 1057 01ec 10E7     		b	.L109
 1058              	.LVL141:
 1059              	.L84:
1427:.\Generated_Source\PSoC4/Bootloader.c ****                     if(Bootloader_COMMUNICATION_STATE_ACTIVE == communicationState)
 1060              		.loc 1 1427 0
 1061 01ee 009E     		ldr	r6, [sp]
 1062 01f0 012E     		cmp	r6, #1
 1063 01f2 A8D1     		bne	.L93
1430:.\Generated_Source\PSoC4/Bootloader.c ****                         if((dataOffset + pktSize) <= Bootloader_SIZEOF_COMMAND_BUFFER)
 1064              		.loc 1 1430 0
 1065 01f4 9623     		mov	r3, #150
 1066 01f6 EE19     		add	r6, r5, r7
 1067 01f8 5B00     		lsl	r3, r3, #1
 1068 01fa 9E42     		cmp	r6, r3
 1069 01fc A8D8     		bhi	.L95
 1070              	.LVL142:
1439:.\Generated_Source\PSoC4/Bootloader.c ****                                 (void) memcpy(&dataBuffer[dataOffset],
 1071              		.loc 1 1439 0
 1072 01fe 51A9     		add	r1, sp, #324
 1073              	.LVL143:
 1074 0200 4819     		add	r0, r1, r5
 1075 0202 3A1C     		mov	r2, r7
 1076 0204 07A9     		add	r1, sp, #28
 1077 0206 FFF7FEFF 		bl	memcpy
 1078              	.LVL144:
1444:.\Generated_Source\PSoC4/Bootloader.c ****                             dataOffset += pktSize;
 1079              		.loc 1 1444 0
 1080 020a B5B2     		uxth	r5, r6
 1081              	.LVL145:
 1082              	.L123:
1432:.\Generated_Source\PSoC4/Bootloader.c ****                             ackCode = CYRET_SUCCESS;
 1083              		.loc 1 1432 0
 1084 020c 0023     		mov	r3, #0
 1085 020e 68E7     		b	.L121
 1086              	.LVL146:
 1087              	.L85:
1462:.\Generated_Source\PSoC4/Bootloader.c ****                 if(pktSize == 0u)
 1088              		.loc 1 1462 0
ARM GAS  C:\Users\kbuchi\AppData\Local\Temp\cc4AaGId.s 			page 56


 1089 0210 002F     		cmp	r7, #0
 1090 0212 98D1     		bne	.L93
 1091              	.LBB25:
1471:.\Generated_Source\PSoC4/Bootloader.c ****                         Bootloader_ENTER CYDATA BtldrVersion =
 1092              		.loc 1 1471 0
 1093 0214 04AB     		add	r3, sp, #16
 1094 0216 254A     		ldr	r2, .L128+24
 1095 0218 191C     		mov	r1, r3
 1096              	.LVL147:
 1097 021a 41CA     		ldmia	r2!, {r0, r6}
 1098 021c 41C1     		stmia	r1!, {r0, r6}
 1099              	.LVL148:
1485:.\Generated_Source\PSoC4/Bootloader.c ****                         (void) memcpy(&packetBuffer[Bootloader_DATA_ADDR],
 1100              		.loc 1 1485 0
 1101 021e 07AA     		add	r2, sp, #28
 1102 0220 41CB     		ldmia	r3!, {r0, r6}
 1103 0222 41C2     		stmia	r2!, {r0, r6}
 1104              	.LVL149:
1476:.\Generated_Source\PSoC4/Bootloader.c ****                     communicationState = Bootloader_COMMUNICATION_STATE_ACTIVE;
 1105              		.loc 1 1476 0
 1106 0224 0126     		mov	r6, #1
 1107 0226 0096     		str	r6, [sp]
1490:.\Generated_Source\PSoC4/Bootloader.c ****                     ackCode = CYRET_SUCCESS;
 1108              		.loc 1 1490 0
 1109 0228 3B1C     		mov	r3, r7
1478:.\Generated_Source\PSoC4/Bootloader.c ****                     rspSize = sizeof(Bootloader_ENTER);
 1110              		.loc 1 1478 0
 1111 022a 0821     		mov	r1, #8
 1112 022c 5AE7     		b	.L73
 1113              	.LVL150:
 1114              	.L86:
 1115              	.LBE25:
1502:.\Generated_Source\PSoC4/Bootloader.c ****                 if((Bootloader_COMMUNICATION_STATE_ACTIVE == communicationState) && (pktSize == 3u)
 1116              		.loc 1 1502 0
 1117 022e 0098     		ldr	r0, [sp]
 1118 0230 0128     		cmp	r0, #1
 1119 0232 88D1     		bne	.L93
 1120 0234 032F     		cmp	r7, #3
 1121 0236 86D1     		bne	.L93
 1122              	.LBB26:
1505:.\Generated_Source\PSoC4/Bootloader.c ****                     uint16 CYDATA rowNum = ((uint16)((uint16)packetBuffer[Bootloader_DATA_ADDR + 2u
 1123              		.loc 1 1505 0
 1124 0238 A379     		ldrb	r3, [r4, #6]
 1125 023a 6279     		ldrb	r2, [r4, #5]
 1126 023c 1B02     		lsl	r3, r3, #8
 1127 023e 1A43     		orr	r2, r3
1534:.\Generated_Source\PSoC4/Bootloader.c ****                                             + ((uint32)rowNum * CYDEV_FLS_ROW_SIZE);
 1128              		.loc 1 1534 0
 1129 0240 3102     		lsl	r1, r6, #8
 1130              	.LVL151:
 1131 0242 5118     		add	r1, r2, r1
1505:.\Generated_Source\PSoC4/Bootloader.c ****                     uint16 CYDATA rowNum = ((uint16)((uint16)packetBuffer[Bootloader_DATA_ADDR + 2u
 1132              		.loc 1 1505 0
 1133 0244 0192     		str	r2, [sp, #4]
 1134              	.LVL152:
1533:.\Generated_Source\PSoC4/Bootloader.c ****                         uint32 CYDATA rowAddr = ((uint32)btldrData * CYDEV_FLS_SECTOR_SIZE)
 1135              		.loc 1 1533 0
ARM GAS  C:\Users\kbuchi\AppData\Local\Temp\cc4AaGId.s 			page 57


 1136 0246 C901     		lsl	r1, r1, #7
1536:.\Generated_Source\PSoC4/Bootloader.c ****                         uint8 CYDATA checksum = Bootloader_Calc8BitSum(CY_FLASH_BASE,
 1137              		.loc 1 1536 0
 1138 0248 0020     		mov	r0, #0
 1139 024a 8022     		mov	r2, #128
 1140 024c FFF7FEFF 		bl	Bootloader_Calc8BitSum
 1141              	.LVL153:
 1142 0250 071C     		mov	r7, r0
 1143              	.LVL154:
1567:.\Generated_Source\PSoC4/Bootloader.c ****                     if((Bootloader_MD_FLASH_ARRAY_NUM == btldrData) &&
 1144              		.loc 1 1567 0
 1145 0252 002E     		cmp	r6, #0
 1146 0254 0ED1     		bne	.L87
 1147 0256 0199     		ldr	r1, [sp, #4]
 1148 0258 FF29     		cmp	r1, #255
 1149 025a 0BD1     		bne	.L87
1571:.\Generated_Source\PSoC4/Bootloader.c ****                         checksum -= (uint8)Bootloader_GetMetadata(Bootloader_GET_BTLDB_ACTIVE,
 1150              		.loc 1 1571 0
 1151 025c 311C     		mov	r1, r6
 1152 025e 0520     		mov	r0, #5
 1153              	.LVL155:
 1154 0260 FFF7FEFF 		bl	Bootloader_GetMetadata
 1155              	.LVL156:
1574:.\Generated_Source\PSoC4/Bootloader.c ****                         checksum -= (uint8)Bootloader_GetMetadata(Bootloader_GET_BTLDB_STATUS,
 1156              		.loc 1 1574 0
 1157 0264 311C     		mov	r1, r6
1571:.\Generated_Source\PSoC4/Bootloader.c ****                         checksum -= (uint8)Bootloader_GetMetadata(Bootloader_GET_BTLDB_ACTIVE,
 1158              		.loc 1 1571 0
 1159 0266 3F1A     		sub	r7, r7, r0
 1160              	.LVL157:
1574:.\Generated_Source\PSoC4/Bootloader.c ****                         checksum -= (uint8)Bootloader_GetMetadata(Bootloader_GET_BTLDB_STATUS,
 1161              		.loc 1 1574 0
 1162 0268 0620     		mov	r0, #6
 1163 026a FFF7FEFF 		bl	Bootloader_GetMetadata
 1164              	.LVL158:
1571:.\Generated_Source\PSoC4/Bootloader.c ****                         checksum -= (uint8)Bootloader_GetMetadata(Bootloader_GET_BTLDB_ACTIVE,
 1165              		.loc 1 1571 0
 1166 026e FFB2     		uxtb	r7, r7
 1167              	.LVL159:
1574:.\Generated_Source\PSoC4/Bootloader.c ****                         checksum -= (uint8)Bootloader_GetMetadata(Bootloader_GET_BTLDB_STATUS,
 1168              		.loc 1 1574 0
 1169 0270 3F1A     		sub	r7, r7, r0
 1170              	.LVL160:
 1171 0272 FFB2     		uxtb	r7, r7
 1172              	.LVL161:
 1173              	.L87:
1578:.\Generated_Source\PSoC4/Bootloader.c ****                     packetBuffer[Bootloader_DATA_ADDR] = (uint8)1u + (uint8)(~checksum);
 1174              		.loc 1 1578 0
 1175 0274 7F42     		neg	r7, r7
 1176              	.LVL162:
 1177 0276 2771     		strb	r7, [r4, #4]
 1178              	.LVL163:
 1179              	.L122:
1579:.\Generated_Source\PSoC4/Bootloader.c ****                     ackCode = CYRET_SUCCESS;
 1180              		.loc 1 1579 0
 1181 0278 0023     		mov	r3, #0
1580:.\Generated_Source\PSoC4/Bootloader.c ****                     rspSize = 1u;
ARM GAS  C:\Users\kbuchi\AppData\Local\Temp\cc4AaGId.s 			page 58


 1182              		.loc 1 1580 0
 1183 027a 0121     		mov	r1, #1
 1184 027c 32E7     		b	.L73
 1185              	.LVL164:
 1186              	.L88:
 1187              	.LBE26:
1592:.\Generated_Source\PSoC4/Bootloader.c ****                 if(CYRET_SUCCESS == Bootloader_ValidateBootloadable(Bootloader_activeApp))
 1188              		.loc 1 1592 0
 1189 027e 0020     		mov	r0, #0
 1190 0280 FFF7FEFF 		bl	Bootloader_ValidateBootloadable
 1191              	.LVL165:
 1192 0284 0028     		cmp	r0, #0
 1193 0286 02D1     		bne	.L89
1594:.\Generated_Source\PSoC4/Bootloader.c ****                     Bootloader_SET_RUN_TYPE(Bootloader_SCHEDULE_BTLDB);
 1194              		.loc 1 1594 0
 1195 0288 094B     		ldr	r3, .L128+28
 1196 028a 8022     		mov	r2, #128
 1197 028c 1A60     		str	r2, [r3]
 1198              	.L89:
1597:.\Generated_Source\PSoC4/Bootloader.c ****                 CySoftwareReset();
 1199              		.loc 1 1597 0
 1200 028e FFF7FEFF 		bl	CySoftwareReset
 1201              	.LVL166:
 1202 0292 58E7     		b	.L93
 1203              	.L129:
 1204              		.align	2
 1205              	.L128:
 1206 0294 8CFDFFFF 		.word	-628
 1207 0298 A7FDFFFF 		.word	-601
 1208 029c 00000000 		.word	.LANCHOR0
 1209 02a0 ACFDFFFF 		.word	-596
 1210 02a4 ADFDFFFF 		.word	-595
 1211 02a8 AEFDFFFF 		.word	-594
 1212 02ac 00000000 		.word	.LANCHOR1
 1213 02b0 00000000 		.word	cyBtldrRunType
 1214              	.LBE43:
 1215              		.cfi_endproc
 1216              	.LFE45:
 1217              		.size	Bootloader_HostLink.constprop.0, .-Bootloader_HostLink.constprop.0
 1218              		.section	.text.Bootloader_Start,"ax",%progbits
 1219              		.align	1
 1220              		.global	Bootloader_Start
 1221              		.code	16
 1222              		.thumb_func
 1223              		.type	Bootloader_Start, %function
 1224              	Bootloader_Start:
 1225              	.LFB35:
 244:.\Generated_Source\PSoC4/Bootloader.c **** {
 1226              		.loc 1 244 0
 1227              		.cfi_startproc
 1228              	.LVL167:
 1229 0000 38B5     		push	{r3, r4, r5, lr}
 1230              		.cfi_def_cfa_offset 16
 1231              		.cfi_offset 3, -16
 1232              		.cfi_offset 4, -12
 1233              		.cfi_offset 5, -8
 1234              		.cfi_offset 14, -4
ARM GAS  C:\Users\kbuchi\AppData\Local\Temp\cc4AaGId.s 			page 59


 346:.\Generated_Source\PSoC4/Bootloader.c ****         if (CYRET_SUCCESS == Bootloader_ValidateBootloadable(Bootloader_MD_BTLDB_ACTIVE_0))
 1235              		.loc 1 346 0
 1236 0002 0020     		mov	r0, #0
 1237 0004 FFF7FEFF 		bl	Bootloader_ValidateBootloadable
 1238              	.LVL168:
 348:.\Generated_Source\PSoC4/Bootloader.c ****             validApp = CYRET_SUCCESS;
 1239              		.loc 1 348 0
 1240 0008 0025     		mov	r5, #0
 346:.\Generated_Source\PSoC4/Bootloader.c ****         if (CYRET_SUCCESS == Bootloader_ValidateBootloadable(Bootloader_MD_BTLDB_ACTIVE_0))
 1241              		.loc 1 346 0
 1242 000a A842     		cmp	r0, r5
 1243 000c 00D0     		beq	.L131
 260:.\Generated_Source\PSoC4/Bootloader.c ****     cystatus validApp  = CYRET_BAD_DATA;
 1244              		.loc 1 260 0
 1245 000e 0625     		mov	r5, #6
 1246              	.L131:
 1247              	.LVL169:
 390:.\Generated_Source\PSoC4/Bootloader.c ****                 *Bootloader_SizeBytesAccess - Bootloader_MD_BTLDR_ADDR_PTR);
 1248              		.loc 1 390 0
 1249 0010 124C     		ldr	r4, .L141
 388:.\Generated_Source\PSoC4/Bootloader.c ****         calcedChecksum = Bootloader_Calc8BitSum(CY_FLASH_BASE,
 1250              		.loc 1 388 0
 1251 0012 0020     		mov	r0, #0
 390:.\Generated_Source\PSoC4/Bootloader.c ****                 *Bootloader_SizeBytesAccess - Bootloader_MD_BTLDR_ADDR_PTR);
 1252              		.loc 1 390 0
 1253 0014 2368     		ldr	r3, [r4]
 388:.\Generated_Source\PSoC4/Bootloader.c ****         calcedChecksum = Bootloader_Calc8BitSum(CY_FLASH_BASE,
 1254              		.loc 1 388 0
 1255 0016 C021     		mov	r1, #192
 1256 0018 1A68     		ldr	r2, [r3]
 1257 001a C03A     		sub	r2, r2, #192
 1258 001c FFF7FEFF 		bl	Bootloader_Calc8BitSum
 1259              	.LVL170:
 393:.\Generated_Source\PSoC4/Bootloader.c ****         calcedChecksum -= *Bootloader_ChecksumAccess;
 1260              		.loc 1 393 0
 1261 0020 6268     		ldr	r2, [r4, #4]
 1262 0022 1378     		ldrb	r3, [r2]
 1263              	.LVL171:
 394:.\Generated_Source\PSoC4/Bootloader.c ****         calcedChecksum = ( uint8 )1u + ( uint8 )(~calcedChecksum);
 1264              		.loc 1 394 0
 1265 0024 181A     		sub	r0, r3, r0
 1266              	.LVL172:
 397:.\Generated_Source\PSoC4/Bootloader.c ****         if((calcedChecksum != *Bootloader_ChecksumAccess) ||
 1267              		.loc 1 397 0
 1268 0026 C0B2     		uxtb	r0, r0
 1269 0028 9842     		cmp	r0, r3
 1270 002a 03D1     		bne	.L132
 398:.\Generated_Source\PSoC4/Bootloader.c ****            (0u == *Bootloader_SizeBytesAccess))
 1271              		.loc 1 398 0 discriminator 1
 1272 002c 2368     		ldr	r3, [r4]
 397:.\Generated_Source\PSoC4/Bootloader.c ****         if((calcedChecksum != *Bootloader_ChecksumAccess) ||
 1273              		.loc 1 397 0 discriminator 1
 1274 002e 1B68     		ldr	r3, [r3]
 1275 0030 002B     		cmp	r3, #0
 1276 0032 02D1     		bne	.L133
 1277              	.L132:
 400:.\Generated_Source\PSoC4/Bootloader.c ****             CyHalt(0x00u);
ARM GAS  C:\Users\kbuchi\AppData\Local\Temp\cc4AaGId.s 			page 60


 1278              		.loc 1 400 0
 1279 0034 0020     		mov	r0, #0
 1280 0036 FFF7FEFF 		bl	CyHalt
 1281              	.LVL173:
 1282              	.L133:
 413:.\Generated_Source\PSoC4/Bootloader.c ****     if ((Bootloader_GET_RUN_TYPE == Bootloader_START_BTLDR) ||
 1283              		.loc 1 413 0
 1284 003a 094B     		ldr	r3, .L141+4
 1285 003c 1968     		ldr	r1, [r3]
 1286 003e 1A1C     		mov	r2, r3
 1287 0040 4029     		cmp	r1, #64
 1288 0042 01D0     		beq	.L134
 413:.\Generated_Source\PSoC4/Bootloader.c ****     if ((Bootloader_GET_RUN_TYPE == Bootloader_START_BTLDR) ||
 1289              		.loc 1 413 0 is_stmt 0 discriminator 1
 1290 0044 002D     		cmp	r5, #0
 1291 0046 03D0     		beq	.L135
 1292              	.L134:
 416:.\Generated_Source\PSoC4/Bootloader.c ****         Bootloader_SET_RUN_TYPE(0u);
 1293              		.loc 1 416 0 is_stmt 1
 1294 0048 0023     		mov	r3, #0
 1295 004a 1360     		str	r3, [r2]
 418:.\Generated_Source\PSoC4/Bootloader.c ****         Bootloader_HostLink(Bootloader_WAIT_FOR_COMMAND_FOREVER);
 1296              		.loc 1 418 0
 1297 004c FFF7FEFF 		bl	Bootloader_HostLink.constprop.0
 1298              	.LVL174:
 1299              	.L135:
 1300              	.LBB46:
 1301              	.LBB47:
 453:.\Generated_Source\PSoC4/Bootloader.c ****     Bootloader_SET_RUN_TYPE(Bootloader_START_APP);
 1302              		.loc 1 453 0
 1303 0050 8022     		mov	r2, #128
 1304 0052 1A60     		str	r2, [r3]
 1305              	.LBE47:
 1306              	.LBE46:
 433:.\Generated_Source\PSoC4/Bootloader.c **** }
 1307              		.loc 1 433 0
 1308              		@ sp needed
 1309              	.LBB49:
 1310              	.LBB48:
 455:.\Generated_Source\PSoC4/Bootloader.c ****     CySoftwareReset();
 1311              		.loc 1 455 0
 1312 0054 FFF7FEFF 		bl	CySoftwareReset
 1313              	.LVL175:
 1314              	.LVL176:
 1315              	.LBE48:
 1316              	.LBE49:
 433:.\Generated_Source\PSoC4/Bootloader.c **** }
 1317              		.loc 1 433 0
 1318 0058 38BD     		pop	{r3, r4, r5, pc}
 1319              	.L142:
 1320 005a C046     		.align	2
 1321              	.L141:
 1322 005c 00000000 		.word	.LANCHOR0
 1323 0060 00000000 		.word	cyBtldrRunType
 1324              		.cfi_endproc
 1325              	.LFE35:
 1326              		.size	Bootloader_Start, .-Bootloader_Start
ARM GAS  C:\Users\kbuchi\AppData\Local\Temp\cc4AaGId.s 			page 61


 1327              		.global	Bootloader_SizeBytesAccess
 1328              		.global	Bootloader_SizeBytes
 1329              		.global	Bootloader_ChecksumAccess
 1330              		.global	Bootloader_Checksum
 1331              		.section	.rodata
 1332              		.align	2
 1333              		.set	.LANCHOR1,. + 0
 1334              	.LC0:
 1335 0000 9311C804 		.word	80220563
 1336 0004 11       		.byte	17
 1337 0005 1E       		.byte	30
 1338 0006 01       		.byte	1
 1339 0007 01       		.byte	1
 1340              		.section	.bootloader,"a",%progbits
 1341              		.align	2
 1342              		.type	Bootloader_SizeBytes, %object
 1343              		.size	Bootloader_SizeBytes, 4
 1344              	Bootloader_SizeBytes:
 1345 0000 FFFFFFFF 		.word	-1
 1346              		.type	Bootloader_Checksum, %object
 1347              		.size	Bootloader_Checksum, 1
 1348              	Bootloader_Checksum:
 1349 0004 00       		.space	1
 1350 0005 000000   		.data
 1351              		.align	2
 1352              		.set	.LANCHOR0,. + 0
 1353              		.type	Bootloader_SizeBytesAccess, %object
 1354              		.size	Bootloader_SizeBytesAccess, 4
 1355              	Bootloader_SizeBytesAccess:
 1356 0000 00000000 		.word	Bootloader_SizeBytes
 1357              		.type	Bootloader_ChecksumAccess, %object
 1358              		.size	Bootloader_ChecksumAccess, 4
 1359              	Bootloader_ChecksumAccess:
 1360 0004 00000000 		.word	Bootloader_Checksum
 1361              		.text
 1362              	.Letext0:
 1363              		.file 2 ".\\Generated_Source\\PSoC4\\cytypes.h"
 1364              		.file 3 ".\\Generated_Source\\PSoC4\\Bootloader_PVT.h"
 1365              		.file 4 ".\\Generated_Source\\PSoC4\\Bootloader.h"
 1366              		.file 5 ".\\Generated_Source\\PSoC4\\CyFlash.h"
 1367              		.file 6 ".\\Generated_Source\\PSoC4\\CyLib.h"