ARM GAS  C:\Users\kbuchi\AppData\Local\Temp\cc2E3m3W.s 			page 1


   1              		.cpu cortex-m0
   2              		.fpu softvfp
   3              		.eabi_attribute 20, 1
   4              		.eabi_attribute 21, 1
   5              		.eabi_attribute 23, 3
   6              		.eabi_attribute 24, 1
   7              		.eabi_attribute 25, 1
   8              		.eabi_attribute 26, 1
   9              		.eabi_attribute 30, 4
  10              		.eabi_attribute 34, 0
  11              		.eabi_attribute 18, 4
  12              		.code	16
  13              		.file	"UART_SPI_UART.c"
  14              		.text
  15              	.Ltext0:
  16              		.cfi_sections	.debug_frame
  17              		.section	.text.UART_SpiUartReadRxData,"ax",%progbits
  18              		.align	1
  19              		.global	UART_SpiUartReadRxData
  20              		.code	16
  21              		.thumb_func
  22              		.type	UART_SpiUartReadRxData, %function
  23              	UART_SpiUartReadRxData:
  24              	.LFB0:
  25              		.file 1 ".\\Generated_Source\\PSoC4\\UART_SPI_UART.c"
   1:.\Generated_Source\PSoC4/UART_SPI_UART.c **** /*******************************************************************************
   2:.\Generated_Source\PSoC4/UART_SPI_UART.c **** * File Name: UART_SPI_UART.c
   3:.\Generated_Source\PSoC4/UART_SPI_UART.c **** * Version 2.0
   4:.\Generated_Source\PSoC4/UART_SPI_UART.c **** *
   5:.\Generated_Source\PSoC4/UART_SPI_UART.c **** * Description:
   6:.\Generated_Source\PSoC4/UART_SPI_UART.c **** *  This file provides the source code to the API for the SCB Component in
   7:.\Generated_Source\PSoC4/UART_SPI_UART.c **** *  SPI and UART modes.
   8:.\Generated_Source\PSoC4/UART_SPI_UART.c **** *
   9:.\Generated_Source\PSoC4/UART_SPI_UART.c **** * Note:
  10:.\Generated_Source\PSoC4/UART_SPI_UART.c **** *
  11:.\Generated_Source\PSoC4/UART_SPI_UART.c **** *******************************************************************************
  12:.\Generated_Source\PSoC4/UART_SPI_UART.c **** * Copyright 2013-2014, Cypress Semiconductor Corporation.  All rights reserved.
  13:.\Generated_Source\PSoC4/UART_SPI_UART.c **** * You may use this file only in accordance with the license, terms, conditions,
  14:.\Generated_Source\PSoC4/UART_SPI_UART.c **** * disclaimers, and limitations in the end user license agreement accompanying
  15:.\Generated_Source\PSoC4/UART_SPI_UART.c **** * the software package with which this file was provided.
  16:.\Generated_Source\PSoC4/UART_SPI_UART.c **** *******************************************************************************/
  17:.\Generated_Source\PSoC4/UART_SPI_UART.c **** 
  18:.\Generated_Source\PSoC4/UART_SPI_UART.c **** #include "UART_PVT.h"
  19:.\Generated_Source\PSoC4/UART_SPI_UART.c **** #include "UART_SPI_UART_PVT.h"
  20:.\Generated_Source\PSoC4/UART_SPI_UART.c **** 
  21:.\Generated_Source\PSoC4/UART_SPI_UART.c **** /***************************************
  22:.\Generated_Source\PSoC4/UART_SPI_UART.c **** *        SPI/UART Private Vars
  23:.\Generated_Source\PSoC4/UART_SPI_UART.c **** ***************************************/
  24:.\Generated_Source\PSoC4/UART_SPI_UART.c **** 
  25:.\Generated_Source\PSoC4/UART_SPI_UART.c **** #if(UART_INTERNAL_RX_SW_BUFFER_CONST)
  26:.\Generated_Source\PSoC4/UART_SPI_UART.c ****     volatile uint32 UART_rxBufferHead;
  27:.\Generated_Source\PSoC4/UART_SPI_UART.c ****     volatile uint32 UART_rxBufferTail;
  28:.\Generated_Source\PSoC4/UART_SPI_UART.c ****     volatile uint8  UART_rxBufferOverflow;
  29:.\Generated_Source\PSoC4/UART_SPI_UART.c **** #endif /* (UART_INTERNAL_RX_SW_BUFFER_CONST) */
  30:.\Generated_Source\PSoC4/UART_SPI_UART.c **** 
  31:.\Generated_Source\PSoC4/UART_SPI_UART.c **** #if(UART_INTERNAL_TX_SW_BUFFER_CONST)
  32:.\Generated_Source\PSoC4/UART_SPI_UART.c ****     volatile uint32 UART_txBufferHead;
ARM GAS  C:\Users\kbuchi\AppData\Local\Temp\cc2E3m3W.s 			page 2


  33:.\Generated_Source\PSoC4/UART_SPI_UART.c ****     volatile uint32 UART_txBufferTail;
  34:.\Generated_Source\PSoC4/UART_SPI_UART.c **** #endif /* (UART_INTERNAL_TX_SW_BUFFER_CONST) */
  35:.\Generated_Source\PSoC4/UART_SPI_UART.c **** 
  36:.\Generated_Source\PSoC4/UART_SPI_UART.c **** #if(UART_INTERNAL_RX_SW_BUFFER)
  37:.\Generated_Source\PSoC4/UART_SPI_UART.c ****     /* Add one element to the buffer to receive full packet. One byte in receive buffer is always e
  38:.\Generated_Source\PSoC4/UART_SPI_UART.c ****     volatile uint8 UART_rxBufferInternal[UART_RX_BUFFER_SIZE];
  39:.\Generated_Source\PSoC4/UART_SPI_UART.c **** #endif /* (UART_INTERNAL_RX_SW_BUFFER) */
  40:.\Generated_Source\PSoC4/UART_SPI_UART.c **** 
  41:.\Generated_Source\PSoC4/UART_SPI_UART.c **** #if(UART_INTERNAL_TX_SW_BUFFER)
  42:.\Generated_Source\PSoC4/UART_SPI_UART.c ****     volatile uint8 UART_txBufferInternal[UART_TX_BUFFER_SIZE];
  43:.\Generated_Source\PSoC4/UART_SPI_UART.c **** #endif /* (UART_INTERNAL_TX_SW_BUFFER) */
  44:.\Generated_Source\PSoC4/UART_SPI_UART.c **** 
  45:.\Generated_Source\PSoC4/UART_SPI_UART.c **** 
  46:.\Generated_Source\PSoC4/UART_SPI_UART.c **** #if(UART_RX_DIRECTION)
  47:.\Generated_Source\PSoC4/UART_SPI_UART.c **** 
  48:.\Generated_Source\PSoC4/UART_SPI_UART.c ****     /*******************************************************************************
  49:.\Generated_Source\PSoC4/UART_SPI_UART.c ****     * Function Name: UART_SpiUartReadRxData
  50:.\Generated_Source\PSoC4/UART_SPI_UART.c ****     ********************************************************************************
  51:.\Generated_Source\PSoC4/UART_SPI_UART.c ****     *
  52:.\Generated_Source\PSoC4/UART_SPI_UART.c ****     * Summary:
  53:.\Generated_Source\PSoC4/UART_SPI_UART.c ****     *  Retrieves the next data element from the receive buffer.
  54:.\Generated_Source\PSoC4/UART_SPI_UART.c ****     *   - RX software buffer is disabled: Returns data element retrieved from
  55:.\Generated_Source\PSoC4/UART_SPI_UART.c ****     *     RX FIFO. Undefined data will be returned if the RX FIFO is empty.
  56:.\Generated_Source\PSoC4/UART_SPI_UART.c ****     *   - RX software buffer is enabled: Returns data element from the software
  57:.\Generated_Source\PSoC4/UART_SPI_UART.c ****     *     receive buffer. Zero value is returned if the software receive buffer
  58:.\Generated_Source\PSoC4/UART_SPI_UART.c ****     *     is empty.
  59:.\Generated_Source\PSoC4/UART_SPI_UART.c ****     *
  60:.\Generated_Source\PSoC4/UART_SPI_UART.c ****     * Parameters:
  61:.\Generated_Source\PSoC4/UART_SPI_UART.c ****     *  None
  62:.\Generated_Source\PSoC4/UART_SPI_UART.c ****     *
  63:.\Generated_Source\PSoC4/UART_SPI_UART.c ****     * Return:
  64:.\Generated_Source\PSoC4/UART_SPI_UART.c ****     *  Next data element from the receive buffer.
  65:.\Generated_Source\PSoC4/UART_SPI_UART.c ****     *
  66:.\Generated_Source\PSoC4/UART_SPI_UART.c ****     * Global Variables:
  67:.\Generated_Source\PSoC4/UART_SPI_UART.c ****     *  Look into UART_SpiInit for description.
  68:.\Generated_Source\PSoC4/UART_SPI_UART.c ****     *
  69:.\Generated_Source\PSoC4/UART_SPI_UART.c ****     *******************************************************************************/
  70:.\Generated_Source\PSoC4/UART_SPI_UART.c ****     uint32 UART_SpiUartReadRxData(void)
  71:.\Generated_Source\PSoC4/UART_SPI_UART.c ****     {
  26              		.loc 1 71 0
  27              		.cfi_startproc
  28              	.LVL0:
  72:.\Generated_Source\PSoC4/UART_SPI_UART.c ****         uint32 rxData = 0u;
  73:.\Generated_Source\PSoC4/UART_SPI_UART.c **** 
  74:.\Generated_Source\PSoC4/UART_SPI_UART.c ****         #if(UART_INTERNAL_RX_SW_BUFFER_CONST)
  75:.\Generated_Source\PSoC4/UART_SPI_UART.c ****             uint32 locTail;
  76:.\Generated_Source\PSoC4/UART_SPI_UART.c ****         #endif /* (UART_INTERNAL_RX_SW_BUFFER_CONST) */
  77:.\Generated_Source\PSoC4/UART_SPI_UART.c **** 
  78:.\Generated_Source\PSoC4/UART_SPI_UART.c ****         #if(UART_CHECK_RX_SW_BUFFER)
  79:.\Generated_Source\PSoC4/UART_SPI_UART.c ****         {
  80:.\Generated_Source\PSoC4/UART_SPI_UART.c ****             if(UART_rxBufferHead != UART_rxBufferTail)
  29              		.loc 1 80 0
  30 0000 094B     		ldr	r3, .L7
  31 0002 0A4A     		ldr	r2, .L7+4
  32 0004 1968     		ldr	r1, [r3]
  33 0006 1368     		ldr	r3, [r2]
  34 0008 9942     		cmp	r1, r3
ARM GAS  C:\Users\kbuchi\AppData\Local\Temp\cc2E3m3W.s 			page 3


  35 000a 0BD0     		beq	.L4
  81:.\Generated_Source\PSoC4/UART_SPI_UART.c ****             {
  82:.\Generated_Source\PSoC4/UART_SPI_UART.c ****                 /* There is data in RX software buffer */
  83:.\Generated_Source\PSoC4/UART_SPI_UART.c **** 
  84:.\Generated_Source\PSoC4/UART_SPI_UART.c ****                 /* Calculate index to read from */
  85:.\Generated_Source\PSoC4/UART_SPI_UART.c ****                 locTail = (UART_rxBufferTail + 1u);
  36              		.loc 1 85 0
  37 000c 1168     		ldr	r1, [r2]
  38 000e 4B1C     		add	r3, r1, #1
  39              	.LVL1:
  86:.\Generated_Source\PSoC4/UART_SPI_UART.c **** 
  87:.\Generated_Source\PSoC4/UART_SPI_UART.c ****                 if(UART_RX_BUFFER_SIZE == locTail)
  88:.\Generated_Source\PSoC4/UART_SPI_UART.c ****                 {
  89:.\Generated_Source\PSoC4/UART_SPI_UART.c ****                     locTail = 0u;
  40              		.loc 1 89 0
  41 0010 4039     		sub	r1, r1, #64
  42 0012 481E     		sub	r0, r1, #1
  43 0014 8141     		sbc	r1, r1, r0
  44 0016 4942     		neg	r1, r1
  45 0018 0B40     		and	r3, r1
  46              	.LVL2:
  90:.\Generated_Source\PSoC4/UART_SPI_UART.c ****                 }
  91:.\Generated_Source\PSoC4/UART_SPI_UART.c **** 
  92:.\Generated_Source\PSoC4/UART_SPI_UART.c ****                 /* Get data from RX software buffer */
  93:.\Generated_Source\PSoC4/UART_SPI_UART.c ****                 rxData = UART_GetWordFromRxBuffer(locTail);
  47              		.loc 1 93 0
  48 001a 0549     		ldr	r1, .L7+8
  49 001c C85C     		ldrb	r0, [r1, r3]
  94:.\Generated_Source\PSoC4/UART_SPI_UART.c **** 
  95:.\Generated_Source\PSoC4/UART_SPI_UART.c ****                 /* Change index in the buffer */
  96:.\Generated_Source\PSoC4/UART_SPI_UART.c ****                 UART_rxBufferTail = locTail;
  50              		.loc 1 96 0
  51 001e 1360     		str	r3, [r2]
  93:.\Generated_Source\PSoC4/UART_SPI_UART.c ****                 rxData = UART_GetWordFromRxBuffer(locTail);
  52              		.loc 1 93 0
  53 0020 C0B2     		uxtb	r0, r0
  54              	.LVL3:
  55 0022 00E0     		b	.L2
  56              	.LVL4:
  57              	.L4:
  72:.\Generated_Source\PSoC4/UART_SPI_UART.c ****         uint32 rxData = 0u;
  58              		.loc 1 72 0
  59 0024 0020     		mov	r0, #0
  60              	.LVL5:
  61              	.L2:
  97:.\Generated_Source\PSoC4/UART_SPI_UART.c ****             }
  98:.\Generated_Source\PSoC4/UART_SPI_UART.c ****         }
  99:.\Generated_Source\PSoC4/UART_SPI_UART.c ****         #else
 100:.\Generated_Source\PSoC4/UART_SPI_UART.c ****         {
 101:.\Generated_Source\PSoC4/UART_SPI_UART.c ****             rxData = UART_RX_FIFO_RD_REG; /* Read data from RX FIFO */
 102:.\Generated_Source\PSoC4/UART_SPI_UART.c ****         }
 103:.\Generated_Source\PSoC4/UART_SPI_UART.c ****         #endif
 104:.\Generated_Source\PSoC4/UART_SPI_UART.c **** 
 105:.\Generated_Source\PSoC4/UART_SPI_UART.c ****         return(rxData);
 106:.\Generated_Source\PSoC4/UART_SPI_UART.c ****     }
  62              		.loc 1 106 0
  63              		@ sp needed
ARM GAS  C:\Users\kbuchi\AppData\Local\Temp\cc2E3m3W.s 			page 4


  64 0026 7047     		bx	lr
  65              	.L8:
  66              		.align	2
  67              	.L7:
  68 0028 00000000 		.word	UART_rxBufferHead
  69 002c 00000000 		.word	UART_rxBufferTail
  70 0030 00000000 		.word	UART_rxBufferInternal
  71              		.cfi_endproc
  72              	.LFE0:
  73              		.size	UART_SpiUartReadRxData, .-UART_SpiUartReadRxData
  74              		.section	.text.UART_SpiUartGetRxBufferSize,"ax",%progbits
  75              		.align	1
  76              		.global	UART_SpiUartGetRxBufferSize
  77              		.code	16
  78              		.thumb_func
  79              		.type	UART_SpiUartGetRxBufferSize, %function
  80              	UART_SpiUartGetRxBufferSize:
  81              	.LFB1:
 107:.\Generated_Source\PSoC4/UART_SPI_UART.c **** 
 108:.\Generated_Source\PSoC4/UART_SPI_UART.c **** 
 109:.\Generated_Source\PSoC4/UART_SPI_UART.c ****     /*******************************************************************************
 110:.\Generated_Source\PSoC4/UART_SPI_UART.c ****     * Function Name: UART_SpiUartGetRxBufferSize
 111:.\Generated_Source\PSoC4/UART_SPI_UART.c ****     ********************************************************************************
 112:.\Generated_Source\PSoC4/UART_SPI_UART.c ****     *
 113:.\Generated_Source\PSoC4/UART_SPI_UART.c ****     * Summary:
 114:.\Generated_Source\PSoC4/UART_SPI_UART.c ****     *  Returns the number of received data elements in the receive buffer.
 115:.\Generated_Source\PSoC4/UART_SPI_UART.c ****     *   - RX software buffer disabled: returns the number of used entries in
 116:.\Generated_Source\PSoC4/UART_SPI_UART.c ****     *     RX FIFO.
 117:.\Generated_Source\PSoC4/UART_SPI_UART.c ****     *   - RX software buffer enabled: returns the number of elements which were
 118:.\Generated_Source\PSoC4/UART_SPI_UART.c ****     *     placed in the receive buffer. This does not include the hardware RX FIFO.
 119:.\Generated_Source\PSoC4/UART_SPI_UART.c ****     *
 120:.\Generated_Source\PSoC4/UART_SPI_UART.c ****     * Parameters:
 121:.\Generated_Source\PSoC4/UART_SPI_UART.c ****     *  None
 122:.\Generated_Source\PSoC4/UART_SPI_UART.c ****     *
 123:.\Generated_Source\PSoC4/UART_SPI_UART.c ****     * Return:
 124:.\Generated_Source\PSoC4/UART_SPI_UART.c ****     *  Number of received data elements
 125:.\Generated_Source\PSoC4/UART_SPI_UART.c ****     *
 126:.\Generated_Source\PSoC4/UART_SPI_UART.c ****     *******************************************************************************/
 127:.\Generated_Source\PSoC4/UART_SPI_UART.c ****     uint32 UART_SpiUartGetRxBufferSize(void)
 128:.\Generated_Source\PSoC4/UART_SPI_UART.c ****     {
  82              		.loc 1 128 0
  83              		.cfi_startproc
 129:.\Generated_Source\PSoC4/UART_SPI_UART.c ****         uint32 size;
 130:.\Generated_Source\PSoC4/UART_SPI_UART.c ****         #if(UART_INTERNAL_RX_SW_BUFFER_CONST)
 131:.\Generated_Source\PSoC4/UART_SPI_UART.c ****             uint32 locHead;
 132:.\Generated_Source\PSoC4/UART_SPI_UART.c ****         #endif /* (UART_INTERNAL_RX_SW_BUFFER_CONST) */
 133:.\Generated_Source\PSoC4/UART_SPI_UART.c **** 
 134:.\Generated_Source\PSoC4/UART_SPI_UART.c ****         #if(UART_CHECK_RX_SW_BUFFER)
 135:.\Generated_Source\PSoC4/UART_SPI_UART.c ****         {
 136:.\Generated_Source\PSoC4/UART_SPI_UART.c ****             locHead = UART_rxBufferHead;
  84              		.loc 1 136 0
  85 0000 064B     		ldr	r3, .L12
 137:.\Generated_Source\PSoC4/UART_SPI_UART.c **** 
 138:.\Generated_Source\PSoC4/UART_SPI_UART.c ****             if(locHead >= UART_rxBufferTail)
  86              		.loc 1 138 0
  87 0002 074A     		ldr	r2, .L12+4
 136:.\Generated_Source\PSoC4/UART_SPI_UART.c ****             locHead = UART_rxBufferHead;
ARM GAS  C:\Users\kbuchi\AppData\Local\Temp\cc2E3m3W.s 			page 5


  88              		.loc 1 136 0
  89 0004 1B68     		ldr	r3, [r3]
  90              	.LVL6:
  91              		.loc 1 138 0
  92 0006 1168     		ldr	r1, [r2]
  93 0008 8B42     		cmp	r3, r1
  94 000a 02D3     		bcc	.L10
 139:.\Generated_Source\PSoC4/UART_SPI_UART.c ****             {
 140:.\Generated_Source\PSoC4/UART_SPI_UART.c ****                 size = (locHead - UART_rxBufferTail);
  95              		.loc 1 140 0
  96 000c 1068     		ldr	r0, [r2]
  97 000e 181A     		sub	r0, r3, r0
  98              	.LVL7:
  99 0010 02E0     		b	.L11
 100              	.LVL8:
 101              	.L10:
 141:.\Generated_Source\PSoC4/UART_SPI_UART.c ****             }
 142:.\Generated_Source\PSoC4/UART_SPI_UART.c ****             else
 143:.\Generated_Source\PSoC4/UART_SPI_UART.c ****             {
 144:.\Generated_Source\PSoC4/UART_SPI_UART.c ****                 size = (locHead + (UART_RX_BUFFER_SIZE - UART_rxBufferTail));
 102              		.loc 1 144 0
 103 0012 1268     		ldr	r2, [r2]
 104 0014 4133     		add	r3, r3, #65
 105              	.LVL9:
 106 0016 981A     		sub	r0, r3, r2
 107              	.LVL10:
 108              	.L11:
 145:.\Generated_Source\PSoC4/UART_SPI_UART.c ****             }
 146:.\Generated_Source\PSoC4/UART_SPI_UART.c ****         }
 147:.\Generated_Source\PSoC4/UART_SPI_UART.c ****         #else
 148:.\Generated_Source\PSoC4/UART_SPI_UART.c ****         {
 149:.\Generated_Source\PSoC4/UART_SPI_UART.c ****             size = UART_GET_RX_FIFO_ENTRIES;
 150:.\Generated_Source\PSoC4/UART_SPI_UART.c ****         }
 151:.\Generated_Source\PSoC4/UART_SPI_UART.c ****         #endif
 152:.\Generated_Source\PSoC4/UART_SPI_UART.c **** 
 153:.\Generated_Source\PSoC4/UART_SPI_UART.c ****         return(size);
 154:.\Generated_Source\PSoC4/UART_SPI_UART.c ****     }
 109              		.loc 1 154 0
 110              		@ sp needed
 111 0018 7047     		bx	lr
 112              	.L13:
 113 001a C046     		.align	2
 114              	.L12:
 115 001c 00000000 		.word	UART_rxBufferHead
 116 0020 00000000 		.word	UART_rxBufferTail
 117              		.cfi_endproc
 118              	.LFE1:
 119              		.size	UART_SpiUartGetRxBufferSize, .-UART_SpiUartGetRxBufferSize
 120              		.section	.text.UART_SpiUartClearRxBuffer,"ax",%progbits
 121              		.align	1
 122              		.global	UART_SpiUartClearRxBuffer
 123              		.code	16
 124              		.thumb_func
 125              		.type	UART_SpiUartClearRxBuffer, %function
 126              	UART_SpiUartClearRxBuffer:
 127              	.LFB2:
 155:.\Generated_Source\PSoC4/UART_SPI_UART.c **** 
ARM GAS  C:\Users\kbuchi\AppData\Local\Temp\cc2E3m3W.s 			page 6


 156:.\Generated_Source\PSoC4/UART_SPI_UART.c **** 
 157:.\Generated_Source\PSoC4/UART_SPI_UART.c ****     /*******************************************************************************
 158:.\Generated_Source\PSoC4/UART_SPI_UART.c ****     * Function Name: UART_SpiUartClearRxBuffer
 159:.\Generated_Source\PSoC4/UART_SPI_UART.c ****     ********************************************************************************
 160:.\Generated_Source\PSoC4/UART_SPI_UART.c ****     *
 161:.\Generated_Source\PSoC4/UART_SPI_UART.c ****     * Summary:
 162:.\Generated_Source\PSoC4/UART_SPI_UART.c ****     *  Clears the receive buffer and RX FIFO.
 163:.\Generated_Source\PSoC4/UART_SPI_UART.c ****     *
 164:.\Generated_Source\PSoC4/UART_SPI_UART.c ****     * Parameters:
 165:.\Generated_Source\PSoC4/UART_SPI_UART.c ****     *  None
 166:.\Generated_Source\PSoC4/UART_SPI_UART.c ****     *
 167:.\Generated_Source\PSoC4/UART_SPI_UART.c ****     * Return:
 168:.\Generated_Source\PSoC4/UART_SPI_UART.c ****     *  None
 169:.\Generated_Source\PSoC4/UART_SPI_UART.c ****     *
 170:.\Generated_Source\PSoC4/UART_SPI_UART.c ****     *******************************************************************************/
 171:.\Generated_Source\PSoC4/UART_SPI_UART.c ****     void UART_SpiUartClearRxBuffer(void)
 172:.\Generated_Source\PSoC4/UART_SPI_UART.c ****     {
 128              		.loc 1 172 0
 129              		.cfi_startproc
 130              	.LBB6:
 131              	.LBB7:
 173:.\Generated_Source\PSoC4/UART_SPI_UART.c ****         #if(UART_INTERNAL_RX_SW_BUFFER_CONST)
 174:.\Generated_Source\PSoC4/UART_SPI_UART.c ****             uint32 intSourceMask;
 175:.\Generated_Source\PSoC4/UART_SPI_UART.c ****         #endif /* (UART_INTERNAL_RX_SW_BUFFER_CONST) */
 176:.\Generated_Source\PSoC4/UART_SPI_UART.c **** 
 177:.\Generated_Source\PSoC4/UART_SPI_UART.c ****         #if(UART_CHECK_RX_SW_BUFFER)
 178:.\Generated_Source\PSoC4/UART_SPI_UART.c ****         {
 179:.\Generated_Source\PSoC4/UART_SPI_UART.c ****             intSourceMask = UART_SpiUartDisableIntRx();
 180:.\Generated_Source\PSoC4/UART_SPI_UART.c **** 
 181:.\Generated_Source\PSoC4/UART_SPI_UART.c ****             UART_CLEAR_RX_FIFO;
 182:.\Generated_Source\PSoC4/UART_SPI_UART.c **** 
 183:.\Generated_Source\PSoC4/UART_SPI_UART.c ****             /* Flush RX software buffer */
 184:.\Generated_Source\PSoC4/UART_SPI_UART.c ****             UART_rxBufferHead     = UART_rxBufferTail;
 185:.\Generated_Source\PSoC4/UART_SPI_UART.c ****             UART_rxBufferOverflow = 0u;
 186:.\Generated_Source\PSoC4/UART_SPI_UART.c **** 
 187:.\Generated_Source\PSoC4/UART_SPI_UART.c ****             /* End RX transfer */
 188:.\Generated_Source\PSoC4/UART_SPI_UART.c ****             UART_ClearRxInterruptSource(UART_INTR_RX_ALL);
 189:.\Generated_Source\PSoC4/UART_SPI_UART.c **** 
 190:.\Generated_Source\PSoC4/UART_SPI_UART.c ****             UART_SpiUartEnableIntRx(intSourceMask);
 191:.\Generated_Source\PSoC4/UART_SPI_UART.c ****         }
 192:.\Generated_Source\PSoC4/UART_SPI_UART.c ****         #else
 193:.\Generated_Source\PSoC4/UART_SPI_UART.c ****         {
 194:.\Generated_Source\PSoC4/UART_SPI_UART.c ****             UART_CLEAR_RX_FIFO;
 195:.\Generated_Source\PSoC4/UART_SPI_UART.c ****         }
 196:.\Generated_Source\PSoC4/UART_SPI_UART.c ****         #endif
 197:.\Generated_Source\PSoC4/UART_SPI_UART.c ****     }
 198:.\Generated_Source\PSoC4/UART_SPI_UART.c **** 
 199:.\Generated_Source\PSoC4/UART_SPI_UART.c **** #endif /* (UART_RX_DIRECTION) */
 200:.\Generated_Source\PSoC4/UART_SPI_UART.c **** 
 201:.\Generated_Source\PSoC4/UART_SPI_UART.c **** 
 202:.\Generated_Source\PSoC4/UART_SPI_UART.c **** #if(UART_TX_DIRECTION)
 203:.\Generated_Source\PSoC4/UART_SPI_UART.c **** 
 204:.\Generated_Source\PSoC4/UART_SPI_UART.c ****     /*******************************************************************************
 205:.\Generated_Source\PSoC4/UART_SPI_UART.c ****     * Function Name: UART_SpiUartWriteTxData
 206:.\Generated_Source\PSoC4/UART_SPI_UART.c ****     ********************************************************************************
 207:.\Generated_Source\PSoC4/UART_SPI_UART.c ****     *
 208:.\Generated_Source\PSoC4/UART_SPI_UART.c ****     * Summary:
ARM GAS  C:\Users\kbuchi\AppData\Local\Temp\cc2E3m3W.s 			page 7


 209:.\Generated_Source\PSoC4/UART_SPI_UART.c ****     *  Places a data entry into the transmit buffer to be sent at the next available
 210:.\Generated_Source\PSoC4/UART_SPI_UART.c ****     *  bus time.
 211:.\Generated_Source\PSoC4/UART_SPI_UART.c ****     *  This function is blocking and waits until there is space available to put the
 212:.\Generated_Source\PSoC4/UART_SPI_UART.c ****     *  requested data in the transmit buffer.
 213:.\Generated_Source\PSoC4/UART_SPI_UART.c ****     *
 214:.\Generated_Source\PSoC4/UART_SPI_UART.c ****     * Parameters:
 215:.\Generated_Source\PSoC4/UART_SPI_UART.c ****     *  txDataByte: the data to be transmitted.
 216:.\Generated_Source\PSoC4/UART_SPI_UART.c ****     *
 217:.\Generated_Source\PSoC4/UART_SPI_UART.c ****     * Return:
 218:.\Generated_Source\PSoC4/UART_SPI_UART.c ****     *  None
 219:.\Generated_Source\PSoC4/UART_SPI_UART.c ****     *
 220:.\Generated_Source\PSoC4/UART_SPI_UART.c ****     *******************************************************************************/
 221:.\Generated_Source\PSoC4/UART_SPI_UART.c ****     void UART_SpiUartWriteTxData(uint32 txData)
 222:.\Generated_Source\PSoC4/UART_SPI_UART.c ****     {
 223:.\Generated_Source\PSoC4/UART_SPI_UART.c ****         #if(UART_INTERNAL_TX_SW_BUFFER_CONST)
 224:.\Generated_Source\PSoC4/UART_SPI_UART.c ****             uint32 locHead;
 225:.\Generated_Source\PSoC4/UART_SPI_UART.c ****             uint32 intSourceMask;
 226:.\Generated_Source\PSoC4/UART_SPI_UART.c ****         #endif /* (UART_INTERNAL_TX_SW_BUFFER_CONST) */
 227:.\Generated_Source\PSoC4/UART_SPI_UART.c **** 
 228:.\Generated_Source\PSoC4/UART_SPI_UART.c ****         #if(UART_CHECK_TX_SW_BUFFER)
 229:.\Generated_Source\PSoC4/UART_SPI_UART.c ****         {
 230:.\Generated_Source\PSoC4/UART_SPI_UART.c ****             /* Head index to put data */
 231:.\Generated_Source\PSoC4/UART_SPI_UART.c ****             locHead = (UART_txBufferHead + 1u);
 232:.\Generated_Source\PSoC4/UART_SPI_UART.c **** 
 233:.\Generated_Source\PSoC4/UART_SPI_UART.c ****             /* Adjust TX software buffer index */
 234:.\Generated_Source\PSoC4/UART_SPI_UART.c ****             if(UART_TX_BUFFER_SIZE == locHead)
 235:.\Generated_Source\PSoC4/UART_SPI_UART.c ****             {
 236:.\Generated_Source\PSoC4/UART_SPI_UART.c ****                 locHead = 0u;
 237:.\Generated_Source\PSoC4/UART_SPI_UART.c ****             }
 238:.\Generated_Source\PSoC4/UART_SPI_UART.c **** 
 239:.\Generated_Source\PSoC4/UART_SPI_UART.c ****             while(locHead == UART_txBufferTail)
 240:.\Generated_Source\PSoC4/UART_SPI_UART.c ****             {
 241:.\Generated_Source\PSoC4/UART_SPI_UART.c ****                 /* Wait for space in TX software buffer */
 242:.\Generated_Source\PSoC4/UART_SPI_UART.c ****             }
 243:.\Generated_Source\PSoC4/UART_SPI_UART.c **** 
 244:.\Generated_Source\PSoC4/UART_SPI_UART.c ****             /* TX software buffer has at least one room */
 245:.\Generated_Source\PSoC4/UART_SPI_UART.c **** 
 246:.\Generated_Source\PSoC4/UART_SPI_UART.c ****             if((UART_txBufferHead == UART_txBufferTail) &&
 247:.\Generated_Source\PSoC4/UART_SPI_UART.c ****                (UART_SPI_UART_FIFO_SIZE != UART_GET_TX_FIFO_ENTRIES))
 248:.\Generated_Source\PSoC4/UART_SPI_UART.c ****             {
 249:.\Generated_Source\PSoC4/UART_SPI_UART.c ****                 /* TX software buffer is empty: put data directly in TX FIFO */
 250:.\Generated_Source\PSoC4/UART_SPI_UART.c ****                 UART_TX_FIFO_WR_REG = txData;
 251:.\Generated_Source\PSoC4/UART_SPI_UART.c ****             }
 252:.\Generated_Source\PSoC4/UART_SPI_UART.c ****             /* Put data in TX software buffer */
 253:.\Generated_Source\PSoC4/UART_SPI_UART.c ****             else
 254:.\Generated_Source\PSoC4/UART_SPI_UART.c ****             {
 255:.\Generated_Source\PSoC4/UART_SPI_UART.c ****                 /* Clear old status of INTR_TX_NOT_FULL. It sets at the end of transfer when TX FIF
 256:.\Generated_Source\PSoC4/UART_SPI_UART.c ****                 UART_ClearTxInterruptSource(UART_INTR_TX_NOT_FULL);
 257:.\Generated_Source\PSoC4/UART_SPI_UART.c **** 
 258:.\Generated_Source\PSoC4/UART_SPI_UART.c ****                 UART_PutWordInTxBuffer(locHead, txData);
 259:.\Generated_Source\PSoC4/UART_SPI_UART.c **** 
 260:.\Generated_Source\PSoC4/UART_SPI_UART.c ****                 UART_txBufferHead = locHead;
 261:.\Generated_Source\PSoC4/UART_SPI_UART.c **** 
 262:.\Generated_Source\PSoC4/UART_SPI_UART.c ****                 /* Enable interrupt to transmit */
 263:.\Generated_Source\PSoC4/UART_SPI_UART.c ****                 intSourceMask  = UART_INTR_TX_NOT_FULL;
 264:.\Generated_Source\PSoC4/UART_SPI_UART.c ****                 intSourceMask |= UART_GetTxInterruptMode();
 265:.\Generated_Source\PSoC4/UART_SPI_UART.c ****                 UART_SpiUartEnableIntTx(intSourceMask);
ARM GAS  C:\Users\kbuchi\AppData\Local\Temp\cc2E3m3W.s 			page 8


 266:.\Generated_Source\PSoC4/UART_SPI_UART.c ****             }
 267:.\Generated_Source\PSoC4/UART_SPI_UART.c ****         }
 268:.\Generated_Source\PSoC4/UART_SPI_UART.c ****         #else
 269:.\Generated_Source\PSoC4/UART_SPI_UART.c ****         {
 270:.\Generated_Source\PSoC4/UART_SPI_UART.c ****             while(UART_SPI_UART_FIFO_SIZE == UART_GET_TX_FIFO_ENTRIES)
 271:.\Generated_Source\PSoC4/UART_SPI_UART.c ****             {
 272:.\Generated_Source\PSoC4/UART_SPI_UART.c ****                 /* Block while TX FIFO is FULL */
 273:.\Generated_Source\PSoC4/UART_SPI_UART.c ****             }
 274:.\Generated_Source\PSoC4/UART_SPI_UART.c **** 
 275:.\Generated_Source\PSoC4/UART_SPI_UART.c ****             UART_TX_FIFO_WR_REG = txData;
 276:.\Generated_Source\PSoC4/UART_SPI_UART.c ****         }
 277:.\Generated_Source\PSoC4/UART_SPI_UART.c ****         #endif
 278:.\Generated_Source\PSoC4/UART_SPI_UART.c ****     }
 279:.\Generated_Source\PSoC4/UART_SPI_UART.c **** 
 280:.\Generated_Source\PSoC4/UART_SPI_UART.c **** 
 281:.\Generated_Source\PSoC4/UART_SPI_UART.c ****     /*******************************************************************************
 282:.\Generated_Source\PSoC4/UART_SPI_UART.c ****     * Function Name: UART_SpiUartPutArray
 283:.\Generated_Source\PSoC4/UART_SPI_UART.c ****     ********************************************************************************
 284:.\Generated_Source\PSoC4/UART_SPI_UART.c ****     *
 285:.\Generated_Source\PSoC4/UART_SPI_UART.c ****     * Summary:
 286:.\Generated_Source\PSoC4/UART_SPI_UART.c ****     *  Places an array of data into the transmit buffer to be sent.
 287:.\Generated_Source\PSoC4/UART_SPI_UART.c ****     *  This function is blocking and waits until there is a space available to put
 288:.\Generated_Source\PSoC4/UART_SPI_UART.c ****     *  all the requested data in the transmit buffer. The array size can be greater
 289:.\Generated_Source\PSoC4/UART_SPI_UART.c ****     *  than transmit buffer size.
 290:.\Generated_Source\PSoC4/UART_SPI_UART.c ****     *
 291:.\Generated_Source\PSoC4/UART_SPI_UART.c ****     * Parameters:
 292:.\Generated_Source\PSoC4/UART_SPI_UART.c ****     *  wrBuf:  pointer to an array with data to be placed in transmit buffer.
 293:.\Generated_Source\PSoC4/UART_SPI_UART.c ****     *  count:  number of data elements to be placed in the transmit buffer.
 294:.\Generated_Source\PSoC4/UART_SPI_UART.c ****     *
 295:.\Generated_Source\PSoC4/UART_SPI_UART.c ****     * Return:
 296:.\Generated_Source\PSoC4/UART_SPI_UART.c ****     *  None
 297:.\Generated_Source\PSoC4/UART_SPI_UART.c ****     *
 298:.\Generated_Source\PSoC4/UART_SPI_UART.c ****     *******************************************************************************/
 299:.\Generated_Source\PSoC4/UART_SPI_UART.c ****     void UART_SpiUartPutArray(const uint8 wrBuf[], uint32 count)
 300:.\Generated_Source\PSoC4/UART_SPI_UART.c ****     {
 301:.\Generated_Source\PSoC4/UART_SPI_UART.c ****         uint32 i;
 302:.\Generated_Source\PSoC4/UART_SPI_UART.c **** 
 303:.\Generated_Source\PSoC4/UART_SPI_UART.c ****         for(i=0u; i < count; i++)
 304:.\Generated_Source\PSoC4/UART_SPI_UART.c ****         {
 305:.\Generated_Source\PSoC4/UART_SPI_UART.c ****             UART_SpiUartWriteTxData((uint32) wrBuf[i]);
 306:.\Generated_Source\PSoC4/UART_SPI_UART.c ****         }
 307:.\Generated_Source\PSoC4/UART_SPI_UART.c ****     }
 308:.\Generated_Source\PSoC4/UART_SPI_UART.c **** 
 309:.\Generated_Source\PSoC4/UART_SPI_UART.c **** 
 310:.\Generated_Source\PSoC4/UART_SPI_UART.c ****     /*******************************************************************************
 311:.\Generated_Source\PSoC4/UART_SPI_UART.c ****     * Function Name: UART_SpiUartGetTxBufferSize
 312:.\Generated_Source\PSoC4/UART_SPI_UART.c ****     ********************************************************************************
 313:.\Generated_Source\PSoC4/UART_SPI_UART.c ****     *
 314:.\Generated_Source\PSoC4/UART_SPI_UART.c ****     * Summary:
 315:.\Generated_Source\PSoC4/UART_SPI_UART.c ****     * Returns the number of elements currently in the transmit buffer.
 316:.\Generated_Source\PSoC4/UART_SPI_UART.c ****     *  - TX software buffer is disabled: returns the number of used entries in
 317:.\Generated_Source\PSoC4/UART_SPI_UART.c ****     *    TX FIFO.
 318:.\Generated_Source\PSoC4/UART_SPI_UART.c ****     *  - TX software buffer is enabled: returns the number of elements currently
 319:.\Generated_Source\PSoC4/UART_SPI_UART.c ****     *    used in the transmit buffer. This number does not include used entries in
 320:.\Generated_Source\PSoC4/UART_SPI_UART.c ****     *    the TX FIFO. The transmit buffer size is zero until the TX FIFO is
 321:.\Generated_Source\PSoC4/UART_SPI_UART.c ****     *    not full.
 322:.\Generated_Source\PSoC4/UART_SPI_UART.c ****     *
ARM GAS  C:\Users\kbuchi\AppData\Local\Temp\cc2E3m3W.s 			page 9


 323:.\Generated_Source\PSoC4/UART_SPI_UART.c ****     * Parameters:
 324:.\Generated_Source\PSoC4/UART_SPI_UART.c ****     *  None
 325:.\Generated_Source\PSoC4/UART_SPI_UART.c ****     *
 326:.\Generated_Source\PSoC4/UART_SPI_UART.c ****     * Return:
 327:.\Generated_Source\PSoC4/UART_SPI_UART.c ****     *  Number of data elements ready to transmit.
 328:.\Generated_Source\PSoC4/UART_SPI_UART.c ****     *
 329:.\Generated_Source\PSoC4/UART_SPI_UART.c ****     *******************************************************************************/
 330:.\Generated_Source\PSoC4/UART_SPI_UART.c ****     uint32 UART_SpiUartGetTxBufferSize(void)
 331:.\Generated_Source\PSoC4/UART_SPI_UART.c ****     {
 332:.\Generated_Source\PSoC4/UART_SPI_UART.c ****         uint32 size;
 333:.\Generated_Source\PSoC4/UART_SPI_UART.c ****         #if(UART_INTERNAL_TX_SW_BUFFER_CONST)
 334:.\Generated_Source\PSoC4/UART_SPI_UART.c ****             uint32 locTail;
 335:.\Generated_Source\PSoC4/UART_SPI_UART.c ****         #endif /* (UART_INTERNAL_TX_SW_BUFFER_CONST) */
 336:.\Generated_Source\PSoC4/UART_SPI_UART.c **** 
 337:.\Generated_Source\PSoC4/UART_SPI_UART.c ****         #if(UART_CHECK_TX_SW_BUFFER)
 338:.\Generated_Source\PSoC4/UART_SPI_UART.c ****         {
 339:.\Generated_Source\PSoC4/UART_SPI_UART.c ****             /* Get current Tail index */
 340:.\Generated_Source\PSoC4/UART_SPI_UART.c ****             locTail = UART_txBufferTail;
 341:.\Generated_Source\PSoC4/UART_SPI_UART.c **** 
 342:.\Generated_Source\PSoC4/UART_SPI_UART.c ****             if(UART_txBufferHead >= locTail)
 343:.\Generated_Source\PSoC4/UART_SPI_UART.c ****             {
 344:.\Generated_Source\PSoC4/UART_SPI_UART.c ****                 size = (UART_txBufferHead - locTail);
 345:.\Generated_Source\PSoC4/UART_SPI_UART.c ****             }
 346:.\Generated_Source\PSoC4/UART_SPI_UART.c ****             else
 347:.\Generated_Source\PSoC4/UART_SPI_UART.c ****             {
 348:.\Generated_Source\PSoC4/UART_SPI_UART.c ****                 size = (UART_txBufferHead + (UART_TX_BUFFER_SIZE - locTail));
 349:.\Generated_Source\PSoC4/UART_SPI_UART.c ****             }
 350:.\Generated_Source\PSoC4/UART_SPI_UART.c ****         }
 351:.\Generated_Source\PSoC4/UART_SPI_UART.c ****         #else
 352:.\Generated_Source\PSoC4/UART_SPI_UART.c ****         {
 353:.\Generated_Source\PSoC4/UART_SPI_UART.c ****             size = UART_GET_TX_FIFO_ENTRIES;
 354:.\Generated_Source\PSoC4/UART_SPI_UART.c ****         }
 355:.\Generated_Source\PSoC4/UART_SPI_UART.c ****         #endif
 356:.\Generated_Source\PSoC4/UART_SPI_UART.c **** 
 357:.\Generated_Source\PSoC4/UART_SPI_UART.c ****         return(size);
 358:.\Generated_Source\PSoC4/UART_SPI_UART.c ****     }
 359:.\Generated_Source\PSoC4/UART_SPI_UART.c **** 
 360:.\Generated_Source\PSoC4/UART_SPI_UART.c **** 
 361:.\Generated_Source\PSoC4/UART_SPI_UART.c ****     /*******************************************************************************
 362:.\Generated_Source\PSoC4/UART_SPI_UART.c ****     * Function Name: UART_SpiUartClearTxBuffer
 363:.\Generated_Source\PSoC4/UART_SPI_UART.c ****     ********************************************************************************
 364:.\Generated_Source\PSoC4/UART_SPI_UART.c ****     *
 365:.\Generated_Source\PSoC4/UART_SPI_UART.c ****     * Summary:
 366:.\Generated_Source\PSoC4/UART_SPI_UART.c ****     *  Clears the transmit buffer and TX FIFO.
 367:.\Generated_Source\PSoC4/UART_SPI_UART.c ****     *
 368:.\Generated_Source\PSoC4/UART_SPI_UART.c ****     * Parameters:
 369:.\Generated_Source\PSoC4/UART_SPI_UART.c ****     *  None
 370:.\Generated_Source\PSoC4/UART_SPI_UART.c ****     *
 371:.\Generated_Source\PSoC4/UART_SPI_UART.c ****     * Return:
 372:.\Generated_Source\PSoC4/UART_SPI_UART.c ****     *  None
 373:.\Generated_Source\PSoC4/UART_SPI_UART.c ****     *
 374:.\Generated_Source\PSoC4/UART_SPI_UART.c ****     *******************************************************************************/
 375:.\Generated_Source\PSoC4/UART_SPI_UART.c ****     void UART_SpiUartClearTxBuffer(void)
 376:.\Generated_Source\PSoC4/UART_SPI_UART.c ****     {
 377:.\Generated_Source\PSoC4/UART_SPI_UART.c ****         #if(UART_INTERNAL_TX_SW_BUFFER_CONST)
 378:.\Generated_Source\PSoC4/UART_SPI_UART.c ****             uint32 intSourceMask;
 379:.\Generated_Source\PSoC4/UART_SPI_UART.c ****         #endif /* (UART_INTERNAL_TX_SW_BUFFER_CONST) */
ARM GAS  C:\Users\kbuchi\AppData\Local\Temp\cc2E3m3W.s 			page 10


 380:.\Generated_Source\PSoC4/UART_SPI_UART.c **** 
 381:.\Generated_Source\PSoC4/UART_SPI_UART.c ****         #if(UART_CHECK_TX_SW_BUFFER)
 382:.\Generated_Source\PSoC4/UART_SPI_UART.c ****         {
 383:.\Generated_Source\PSoC4/UART_SPI_UART.c ****             intSourceMask = UART_SpiUartDisableIntTx();
 384:.\Generated_Source\PSoC4/UART_SPI_UART.c **** 
 385:.\Generated_Source\PSoC4/UART_SPI_UART.c ****             UART_CLEAR_TX_FIFO;
 386:.\Generated_Source\PSoC4/UART_SPI_UART.c **** 
 387:.\Generated_Source\PSoC4/UART_SPI_UART.c ****             /* Flush TX software buffer */
 388:.\Generated_Source\PSoC4/UART_SPI_UART.c ****             UART_txBufferHead = UART_txBufferTail;
 389:.\Generated_Source\PSoC4/UART_SPI_UART.c **** 
 390:.\Generated_Source\PSoC4/UART_SPI_UART.c ****             /* End TX transfer if it is in progress */
 391:.\Generated_Source\PSoC4/UART_SPI_UART.c ****             intSourceMask &= (uint32) ~UART_INTR_TX_NOT_FULL;
 392:.\Generated_Source\PSoC4/UART_SPI_UART.c **** 
 393:.\Generated_Source\PSoC4/UART_SPI_UART.c ****             UART_SpiUartEnableIntTx(intSourceMask);
 394:.\Generated_Source\PSoC4/UART_SPI_UART.c ****         }
 395:.\Generated_Source\PSoC4/UART_SPI_UART.c ****         #else
 396:.\Generated_Source\PSoC4/UART_SPI_UART.c ****         {
 397:.\Generated_Source\PSoC4/UART_SPI_UART.c ****             UART_CLEAR_TX_FIFO;
 398:.\Generated_Source\PSoC4/UART_SPI_UART.c ****         }
 399:.\Generated_Source\PSoC4/UART_SPI_UART.c ****         #endif
 400:.\Generated_Source\PSoC4/UART_SPI_UART.c ****     }
 401:.\Generated_Source\PSoC4/UART_SPI_UART.c **** 
 402:.\Generated_Source\PSoC4/UART_SPI_UART.c **** #endif /* (UART_TX_DIRECTION) */
 403:.\Generated_Source\PSoC4/UART_SPI_UART.c **** 
 404:.\Generated_Source\PSoC4/UART_SPI_UART.c **** 
 405:.\Generated_Source\PSoC4/UART_SPI_UART.c **** /*******************************************************************************
 406:.\Generated_Source\PSoC4/UART_SPI_UART.c **** * Function Name: UART_SpiUartDisableIntRx
 407:.\Generated_Source\PSoC4/UART_SPI_UART.c **** ********************************************************************************
 408:.\Generated_Source\PSoC4/UART_SPI_UART.c **** *
 409:.\Generated_Source\PSoC4/UART_SPI_UART.c **** * Summary:
 410:.\Generated_Source\PSoC4/UART_SPI_UART.c **** *  Disables the RX interrupt sources.
 411:.\Generated_Source\PSoC4/UART_SPI_UART.c **** *
 412:.\Generated_Source\PSoC4/UART_SPI_UART.c **** * Parameters:
 413:.\Generated_Source\PSoC4/UART_SPI_UART.c **** *  None
 414:.\Generated_Source\PSoC4/UART_SPI_UART.c **** *
 415:.\Generated_Source\PSoC4/UART_SPI_UART.c **** * Return:
 416:.\Generated_Source\PSoC4/UART_SPI_UART.c **** *  Returns the RX interrupt sources enabled before the function call.
 417:.\Generated_Source\PSoC4/UART_SPI_UART.c **** *
 418:.\Generated_Source\PSoC4/UART_SPI_UART.c **** *******************************************************************************/
 419:.\Generated_Source\PSoC4/UART_SPI_UART.c **** uint32 UART_SpiUartDisableIntRx(void)
 420:.\Generated_Source\PSoC4/UART_SPI_UART.c **** {
 421:.\Generated_Source\PSoC4/UART_SPI_UART.c ****     uint32 intSource;
 422:.\Generated_Source\PSoC4/UART_SPI_UART.c **** 
 423:.\Generated_Source\PSoC4/UART_SPI_UART.c ****     intSource = UART_GetRxInterruptMode();
 132              		.loc 1 423 0
 133 0000 0C4A     		ldr	r2, .L15
 134              	.LBE7:
 135              	.LBE6:
 181:.\Generated_Source\PSoC4/UART_SPI_UART.c ****             UART_CLEAR_RX_FIFO;
 136              		.loc 1 181 0
 137 0002 0D4B     		ldr	r3, .L15+4
 138              	.LBB10:
 139              	.LBB8:
 424:.\Generated_Source\PSoC4/UART_SPI_UART.c **** 
 425:.\Generated_Source\PSoC4/UART_SPI_UART.c ****     UART_SetRxInterruptMode(UART_NO_INTR_SOURCES);
 140              		.loc 1 425 0
 141 0004 0021     		mov	r1, #0
ARM GAS  C:\Users\kbuchi\AppData\Local\Temp\cc2E3m3W.s 			page 11


 142              	.LBE8:
 143              	.LBE10:
 172:.\Generated_Source\PSoC4/UART_SPI_UART.c ****     {
 144              		.loc 1 172 0
 145 0006 30B5     		push	{r4, r5, lr}
 146              		.cfi_def_cfa_offset 12
 147              		.cfi_offset 4, -12
 148              		.cfi_offset 5, -8
 149              		.cfi_offset 14, -4
 150              	.LBB11:
 151              	.LBB9:
 423:.\Generated_Source\PSoC4/UART_SPI_UART.c ****     intSource = UART_GetRxInterruptMode();
 152              		.loc 1 423 0
 153 0008 1068     		ldr	r0, [r2]
 154              	.LVL11:
 155              		.loc 1 425 0
 156 000a 1160     		str	r1, [r2]
 157              	.LBE9:
 158              	.LBE11:
 181:.\Generated_Source\PSoC4/UART_SPI_UART.c ****             UART_CLEAR_RX_FIFO;
 159              		.loc 1 181 0
 160 000c 1D68     		ldr	r5, [r3]
 161 000e 8024     		mov	r4, #128
 162 0010 6402     		lsl	r4, r4, #9
 163 0012 2C43     		orr	r4, r5
 164 0014 1C60     		str	r4, [r3]
 165 0016 1D68     		ldr	r5, [r3]
 166 0018 084C     		ldr	r4, .L15+8
 197:.\Generated_Source\PSoC4/UART_SPI_UART.c ****     }
 167              		.loc 1 197 0
 168              		@ sp needed
 181:.\Generated_Source\PSoC4/UART_SPI_UART.c ****             UART_CLEAR_RX_FIFO;
 169              		.loc 1 181 0
 170 001a 2C40     		and	r4, r5
 171 001c 1C60     		str	r4, [r3]
 184:.\Generated_Source\PSoC4/UART_SPI_UART.c ****             UART_rxBufferHead     = UART_rxBufferTail;
 172              		.loc 1 184 0
 173 001e 084B     		ldr	r3, .L15+12
 174 0020 1C68     		ldr	r4, [r3]
 175 0022 084B     		ldr	r3, .L15+16
 176 0024 1C60     		str	r4, [r3]
 185:.\Generated_Source\PSoC4/UART_SPI_UART.c ****             UART_rxBufferOverflow = 0u;
 177              		.loc 1 185 0
 178 0026 084B     		ldr	r3, .L15+20
 179 0028 1970     		strb	r1, [r3]
 188:.\Generated_Source\PSoC4/UART_SPI_UART.c ****             UART_ClearRxInterruptSource(UART_INTR_RX_ALL);
 180              		.loc 1 188 0
 181 002a 0849     		ldr	r1, .L15+24
 182 002c 084B     		ldr	r3, .L15+28
 183 002e 1960     		str	r1, [r3]
 190:.\Generated_Source\PSoC4/UART_SPI_UART.c ****             UART_SpiUartEnableIntRx(intSourceMask);
 184              		.loc 1 190 0
 185 0030 1060     		str	r0, [r2]
 197:.\Generated_Source\PSoC4/UART_SPI_UART.c ****     }
 186              		.loc 1 197 0
 187 0032 30BD     		pop	{r4, r5, pc}
 188              	.L16:
ARM GAS  C:\Users\kbuchi\AppData\Local\Temp\cc2E3m3W.s 			page 12


 189              		.align	2
 190              	.L15:
 191 0034 C80F0640 		.word	1074139080
 192 0038 04030640 		.word	1074135812
 193 003c FFFFFEFF 		.word	-65537
 194 0040 00000000 		.word	UART_rxBufferTail
 195 0044 00000000 		.word	UART_rxBufferHead
 196 0048 00000000 		.word	UART_rxBufferOverflow
 197 004c ED0F0000 		.word	4077
 198 0050 C00F0640 		.word	1074139072
 199              		.cfi_endproc
 200              	.LFE2:
 201              		.size	UART_SpiUartClearRxBuffer, .-UART_SpiUartClearRxBuffer
 202              		.section	.text.UART_SpiUartWriteTxData,"ax",%progbits
 203              		.align	1
 204              		.global	UART_SpiUartWriteTxData
 205              		.code	16
 206              		.thumb_func
 207              		.type	UART_SpiUartWriteTxData, %function
 208              	UART_SpiUartWriteTxData:
 209              	.LFB3:
 222:.\Generated_Source\PSoC4/UART_SPI_UART.c ****     {
 210              		.loc 1 222 0
 211              		.cfi_startproc
 212              	.LVL12:
 231:.\Generated_Source\PSoC4/UART_SPI_UART.c ****             locHead = (UART_txBufferHead + 1u);
 213              		.loc 1 231 0
 214 0000 1249     		ldr	r1, .L27
 222:.\Generated_Source\PSoC4/UART_SPI_UART.c ****     {
 215              		.loc 1 222 0
 216 0002 10B5     		push	{r4, lr}
 217              		.cfi_def_cfa_offset 8
 218              		.cfi_offset 4, -8
 219              		.cfi_offset 14, -4
 231:.\Generated_Source\PSoC4/UART_SPI_UART.c ****             locHead = (UART_txBufferHead + 1u);
 220              		.loc 1 231 0
 221 0004 0A68     		ldr	r2, [r1]
 222 0006 531C     		add	r3, r2, #1
 223              	.LVL13:
 236:.\Generated_Source\PSoC4/UART_SPI_UART.c ****                 locHead = 0u;
 224              		.loc 1 236 0
 225 0008 3F3A     		sub	r2, r2, #63
 226 000a 541E     		sub	r4, r2, #1
 227 000c A241     		sbc	r2, r2, r4
 228 000e 5242     		neg	r2, r2
 229 0010 1340     		and	r3, r2
 230              	.LVL14:
 231              	.L20:
 239:.\Generated_Source\PSoC4/UART_SPI_UART.c ****             while(locHead == UART_txBufferTail)
 232              		.loc 1 239 0 discriminator 1
 233 0012 0F4A     		ldr	r2, .L27+4
 234 0014 1468     		ldr	r4, [r2]
 235 0016 A342     		cmp	r3, r4
 236 0018 FBD0     		beq	.L20
 246:.\Generated_Source\PSoC4/UART_SPI_UART.c ****             if((UART_txBufferHead == UART_txBufferTail) &&
 237              		.loc 1 246 0
 238 001a 0C68     		ldr	r4, [r1]
ARM GAS  C:\Users\kbuchi\AppData\Local\Temp\cc2E3m3W.s 			page 13


 239 001c 1268     		ldr	r2, [r2]
 240 001e 9442     		cmp	r4, r2
 241 0020 08D1     		bne	.L21
 247:.\Generated_Source\PSoC4/UART_SPI_UART.c ****                (UART_SPI_UART_FIFO_SIZE != UART_GET_TX_FIFO_ENTRIES))
 242              		.loc 1 247 0 discriminator 1
 243 0022 0C4A     		ldr	r2, .L27+8
 244 0024 1468     		ldr	r4, [r2]
 245 0026 0F22     		mov	r2, #15
 246 0028 2240     		and	r2, r4
 246:.\Generated_Source\PSoC4/UART_SPI_UART.c ****             if((UART_txBufferHead == UART_txBufferTail) &&
 247              		.loc 1 246 0 discriminator 1
 248 002a 082A     		cmp	r2, #8
 249 002c 02D0     		beq	.L21
 250:.\Generated_Source\PSoC4/UART_SPI_UART.c ****                 UART_TX_FIFO_WR_REG = txData;
 250              		.loc 1 250 0
 251 002e 0A4B     		ldr	r3, .L27+12
 252              	.LVL15:
 253 0030 1860     		str	r0, [r3]
 254 0032 0AE0     		b	.L17
 255              	.LVL16:
 256              	.L21:
 256:.\Generated_Source\PSoC4/UART_SPI_UART.c ****                 UART_ClearTxInterruptSource(UART_INTR_TX_NOT_FULL);
 257              		.loc 1 256 0
 258 0034 094C     		ldr	r4, .L27+16
 259 0036 0222     		mov	r2, #2
 260 0038 2260     		str	r2, [r4]
 258:.\Generated_Source\PSoC4/UART_SPI_UART.c ****                 UART_PutWordInTxBuffer(locHead, txData);
 261              		.loc 1 258 0
 262 003a 094C     		ldr	r4, .L27+20
 263 003c C0B2     		uxtb	r0, r0
 264              	.LVL17:
 265 003e E054     		strb	r0, [r4, r3]
 260:.\Generated_Source\PSoC4/UART_SPI_UART.c ****                 UART_txBufferHead = locHead;
 266              		.loc 1 260 0
 267 0040 0B60     		str	r3, [r1]
 268              	.LVL18:
 264:.\Generated_Source\PSoC4/UART_SPI_UART.c ****                 intSourceMask |= UART_GetTxInterruptMode();
 269              		.loc 1 264 0
 270 0042 084B     		ldr	r3, .L27+24
 271              	.LVL19:
 272 0044 1968     		ldr	r1, [r3]
 273 0046 0A43     		orr	r2, r1
 274              	.LVL20:
 265:.\Generated_Source\PSoC4/UART_SPI_UART.c ****                 UART_SpiUartEnableIntTx(intSourceMask);
 275              		.loc 1 265 0
 276 0048 1A60     		str	r2, [r3]
 277              	.LVL21:
 278              	.L17:
 278:.\Generated_Source\PSoC4/UART_SPI_UART.c ****     }
 279              		.loc 1 278 0
 280              		@ sp needed
 281 004a 10BD     		pop	{r4, pc}
 282              	.L28:
 283              		.align	2
 284              	.L27:
 285 004c 00000000 		.word	UART_txBufferHead
 286 0050 00000000 		.word	UART_txBufferTail
ARM GAS  C:\Users\kbuchi\AppData\Local\Temp\cc2E3m3W.s 			page 14


 287 0054 08020640 		.word	1074135560
 288 0058 40020640 		.word	1074135616
 289 005c 800F0640 		.word	1074139008
 290 0060 00000000 		.word	UART_txBufferInternal
 291 0064 880F0640 		.word	1074139016
 292              		.cfi_endproc
 293              	.LFE3:
 294              		.size	UART_SpiUartWriteTxData, .-UART_SpiUartWriteTxData
 295              		.section	.text.UART_SpiUartPutArray,"ax",%progbits
 296              		.align	1
 297              		.global	UART_SpiUartPutArray
 298              		.code	16
 299              		.thumb_func
 300              		.type	UART_SpiUartPutArray, %function
 301              	UART_SpiUartPutArray:
 302              	.LFB4:
 300:.\Generated_Source\PSoC4/UART_SPI_UART.c ****     {
 303              		.loc 1 300 0
 304              		.cfi_startproc
 305              	.LVL22:
 306 0000 38B5     		push	{r3, r4, r5, lr}
 307              		.cfi_def_cfa_offset 16
 308              		.cfi_offset 3, -16
 309              		.cfi_offset 4, -12
 310              		.cfi_offset 5, -8
 311              		.cfi_offset 14, -4
 312 0002 041C     		mov	r4, r0
 313 0004 4518     		add	r5, r0, r1
 314              	.LVL23:
 315              	.L30:
 303:.\Generated_Source\PSoC4/UART_SPI_UART.c ****         for(i=0u; i < count; i++)
 316              		.loc 1 303 0 discriminator 1
 317 0006 AC42     		cmp	r4, r5
 318 0008 04D0     		beq	.L32
 305:.\Generated_Source\PSoC4/UART_SPI_UART.c ****             UART_SpiUartWriteTxData((uint32) wrBuf[i]);
 319              		.loc 1 305 0 discriminator 2
 320 000a 2078     		ldrb	r0, [r4]
 321 000c FFF7FEFF 		bl	UART_SpiUartWriteTxData
 322              	.LVL24:
 323 0010 0134     		add	r4, r4, #1
 324              	.LVL25:
 325 0012 F8E7     		b	.L30
 326              	.L32:
 307:.\Generated_Source\PSoC4/UART_SPI_UART.c ****     }
 327              		.loc 1 307 0
 328              		@ sp needed
 329              	.LVL26:
 330 0014 38BD     		pop	{r3, r4, r5, pc}
 331              		.cfi_endproc
 332              	.LFE4:
 333              		.size	UART_SpiUartPutArray, .-UART_SpiUartPutArray
 334              		.section	.text.UART_SpiUartGetTxBufferSize,"ax",%progbits
 335              		.align	1
 336              		.global	UART_SpiUartGetTxBufferSize
 337              		.code	16
 338              		.thumb_func
 339              		.type	UART_SpiUartGetTxBufferSize, %function
ARM GAS  C:\Users\kbuchi\AppData\Local\Temp\cc2E3m3W.s 			page 15


 340              	UART_SpiUartGetTxBufferSize:
 341              	.LFB5:
 331:.\Generated_Source\PSoC4/UART_SPI_UART.c ****     {
 342              		.loc 1 331 0
 343              		.cfi_startproc
 342:.\Generated_Source\PSoC4/UART_SPI_UART.c ****             if(UART_txBufferHead >= locTail)
 344              		.loc 1 342 0
 345 0000 044A     		ldr	r2, .L37
 340:.\Generated_Source\PSoC4/UART_SPI_UART.c ****             locTail = UART_txBufferTail;
 346              		.loc 1 340 0
 347 0002 054B     		ldr	r3, .L37+4
 348 0004 1B68     		ldr	r3, [r3]
 349              	.LVL27:
 342:.\Generated_Source\PSoC4/UART_SPI_UART.c ****             if(UART_txBufferHead >= locTail)
 350              		.loc 1 342 0
 351 0006 1168     		ldr	r1, [r2]
 344:.\Generated_Source\PSoC4/UART_SPI_UART.c ****                 size = (UART_txBufferHead - locTail);
 352              		.loc 1 344 0
 353 0008 1068     		ldr	r0, [r2]
 342:.\Generated_Source\PSoC4/UART_SPI_UART.c ****             if(UART_txBufferHead >= locTail)
 354              		.loc 1 342 0
 355 000a 9942     		cmp	r1, r3
 356 000c 00D2     		bcs	.L36
 348:.\Generated_Source\PSoC4/UART_SPI_UART.c ****                 size = (UART_txBufferHead + (UART_TX_BUFFER_SIZE - locTail));
 357              		.loc 1 348 0
 358 000e 4030     		add	r0, r0, #64
 359              	.L36:
 360 0010 C01A     		sub	r0, r0, r3
 361              	.LVL28:
 358:.\Generated_Source\PSoC4/UART_SPI_UART.c ****     }
 362              		.loc 1 358 0
 363              		@ sp needed
 364 0012 7047     		bx	lr
 365              	.L38:
 366              		.align	2
 367              	.L37:
 368 0014 00000000 		.word	UART_txBufferHead
 369 0018 00000000 		.word	UART_txBufferTail
 370              		.cfi_endproc
 371              	.LFE5:
 372              		.size	UART_SpiUartGetTxBufferSize, .-UART_SpiUartGetTxBufferSize
 373              		.section	.text.UART_SpiUartClearTxBuffer,"ax",%progbits
 374              		.align	1
 375              		.global	UART_SpiUartClearTxBuffer
 376              		.code	16
 377              		.thumb_func
 378              		.type	UART_SpiUartClearTxBuffer, %function
 379              	UART_SpiUartClearTxBuffer:
 380              	.LFB6:
 376:.\Generated_Source\PSoC4/UART_SPI_UART.c ****     {
 381              		.loc 1 376 0
 382              		.cfi_startproc
 383              	.LBB12:
 384              	.LBB13:
 426:.\Generated_Source\PSoC4/UART_SPI_UART.c **** 
 427:.\Generated_Source\PSoC4/UART_SPI_UART.c ****     return(intSource);
 428:.\Generated_Source\PSoC4/UART_SPI_UART.c **** }
ARM GAS  C:\Users\kbuchi\AppData\Local\Temp\cc2E3m3W.s 			page 16


 429:.\Generated_Source\PSoC4/UART_SPI_UART.c **** 
 430:.\Generated_Source\PSoC4/UART_SPI_UART.c **** 
 431:.\Generated_Source\PSoC4/UART_SPI_UART.c **** /*******************************************************************************
 432:.\Generated_Source\PSoC4/UART_SPI_UART.c **** * Function Name: UART_SpiUartDisableIntTx
 433:.\Generated_Source\PSoC4/UART_SPI_UART.c **** ********************************************************************************
 434:.\Generated_Source\PSoC4/UART_SPI_UART.c **** *
 435:.\Generated_Source\PSoC4/UART_SPI_UART.c **** * Summary:
 436:.\Generated_Source\PSoC4/UART_SPI_UART.c **** *  Disables TX interrupt sources.
 437:.\Generated_Source\PSoC4/UART_SPI_UART.c **** *
 438:.\Generated_Source\PSoC4/UART_SPI_UART.c **** * Parameters:
 439:.\Generated_Source\PSoC4/UART_SPI_UART.c **** *  None
 440:.\Generated_Source\PSoC4/UART_SPI_UART.c **** *
 441:.\Generated_Source\PSoC4/UART_SPI_UART.c **** * Return:
 442:.\Generated_Source\PSoC4/UART_SPI_UART.c **** *  Returns TX interrupt sources enabled before function call.
 443:.\Generated_Source\PSoC4/UART_SPI_UART.c **** *
 444:.\Generated_Source\PSoC4/UART_SPI_UART.c **** *******************************************************************************/
 445:.\Generated_Source\PSoC4/UART_SPI_UART.c **** uint32 UART_SpiUartDisableIntTx(void)
 446:.\Generated_Source\PSoC4/UART_SPI_UART.c **** {
 447:.\Generated_Source\PSoC4/UART_SPI_UART.c ****     uint32 intSourceMask;
 448:.\Generated_Source\PSoC4/UART_SPI_UART.c **** 
 449:.\Generated_Source\PSoC4/UART_SPI_UART.c ****     intSourceMask = UART_GetTxInterruptMode();
 385              		.loc 1 449 0
 386 0000 0B4A     		ldr	r2, .L40
 450:.\Generated_Source\PSoC4/UART_SPI_UART.c **** 
 451:.\Generated_Source\PSoC4/UART_SPI_UART.c ****     UART_SetTxInterruptMode(UART_NO_INTR_SOURCES);
 387              		.loc 1 451 0
 388 0002 0023     		mov	r3, #0
 449:.\Generated_Source\PSoC4/UART_SPI_UART.c ****     intSourceMask = UART_GetTxInterruptMode();
 389              		.loc 1 449 0
 390 0004 1168     		ldr	r1, [r2]
 391              	.LVL29:
 392              	.LBE13:
 393              	.LBE12:
 376:.\Generated_Source\PSoC4/UART_SPI_UART.c ****     {
 394              		.loc 1 376 0
 395 0006 10B5     		push	{r4, lr}
 396              		.cfi_def_cfa_offset 8
 397              		.cfi_offset 4, -8
 398              		.cfi_offset 14, -4
 399              	.LBB15:
 400              	.LBB14:
 401              		.loc 1 451 0
 402 0008 1360     		str	r3, [r2]
 403              	.LBE14:
 404              	.LBE15:
 385:.\Generated_Source\PSoC4/UART_SPI_UART.c ****             UART_CLEAR_TX_FIFO;
 405              		.loc 1 385 0
 406 000a 0A4B     		ldr	r3, .L40+4
 407 000c 8020     		mov	r0, #128
 408 000e 1C68     		ldr	r4, [r3]
 409 0010 4002     		lsl	r0, r0, #9
 410 0012 2043     		orr	r0, r4
 411 0014 1860     		str	r0, [r3]
 412 0016 1C68     		ldr	r4, [r3]
 413 0018 0748     		ldr	r0, .L40+8
 400:.\Generated_Source\PSoC4/UART_SPI_UART.c ****     }
 414              		.loc 1 400 0
ARM GAS  C:\Users\kbuchi\AppData\Local\Temp\cc2E3m3W.s 			page 17


 415              		@ sp needed
 385:.\Generated_Source\PSoC4/UART_SPI_UART.c ****             UART_CLEAR_TX_FIFO;
 416              		.loc 1 385 0
 417 001a 2040     		and	r0, r4
 418 001c 1860     		str	r0, [r3]
 388:.\Generated_Source\PSoC4/UART_SPI_UART.c ****             UART_txBufferHead = UART_txBufferTail;
 419              		.loc 1 388 0
 420 001e 074B     		ldr	r3, .L40+12
 421 0020 1868     		ldr	r0, [r3]
 422 0022 074B     		ldr	r3, .L40+16
 423 0024 1860     		str	r0, [r3]
 391:.\Generated_Source\PSoC4/UART_SPI_UART.c ****             intSourceMask &= (uint32) ~UART_INTR_TX_NOT_FULL;
 424              		.loc 1 391 0
 425 0026 0223     		mov	r3, #2
 426 0028 9943     		bic	r1, r3
 427              	.LVL30:
 393:.\Generated_Source\PSoC4/UART_SPI_UART.c ****             UART_SpiUartEnableIntTx(intSourceMask);
 428              		.loc 1 393 0
 429 002a 1160     		str	r1, [r2]
 400:.\Generated_Source\PSoC4/UART_SPI_UART.c ****     }
 430              		.loc 1 400 0
 431 002c 10BD     		pop	{r4, pc}
 432              	.L41:
 433 002e C046     		.align	2
 434              	.L40:
 435 0030 880F0640 		.word	1074139016
 436 0034 04020640 		.word	1074135556
 437 0038 FFFFFEFF 		.word	-65537
 438 003c 00000000 		.word	UART_txBufferTail
 439 0040 00000000 		.word	UART_txBufferHead
 440              		.cfi_endproc
 441              	.LFE6:
 442              		.size	UART_SpiUartClearTxBuffer, .-UART_SpiUartClearTxBuffer
 443              		.section	.text.UART_SpiUartDisableIntRx,"ax",%progbits
 444              		.align	1
 445              		.global	UART_SpiUartDisableIntRx
 446              		.code	16
 447              		.thumb_func
 448              		.type	UART_SpiUartDisableIntRx, %function
 449              	UART_SpiUartDisableIntRx:
 450              	.LFB7:
 420:.\Generated_Source\PSoC4/UART_SPI_UART.c **** {
 451              		.loc 1 420 0
 452              		.cfi_startproc
 423:.\Generated_Source\PSoC4/UART_SPI_UART.c ****     intSource = UART_GetRxInterruptMode();
 453              		.loc 1 423 0
 454 0000 024B     		ldr	r3, .L43
 425:.\Generated_Source\PSoC4/UART_SPI_UART.c ****     UART_SetRxInterruptMode(UART_NO_INTR_SOURCES);
 455              		.loc 1 425 0
 456 0002 0022     		mov	r2, #0
 423:.\Generated_Source\PSoC4/UART_SPI_UART.c ****     intSource = UART_GetRxInterruptMode();
 457              		.loc 1 423 0
 458 0004 1868     		ldr	r0, [r3]
 459              	.LVL31:
 428:.\Generated_Source\PSoC4/UART_SPI_UART.c **** }
 460              		.loc 1 428 0
 461              		@ sp needed
ARM GAS  C:\Users\kbuchi\AppData\Local\Temp\cc2E3m3W.s 			page 18


 425:.\Generated_Source\PSoC4/UART_SPI_UART.c ****     UART_SetRxInterruptMode(UART_NO_INTR_SOURCES);
 462              		.loc 1 425 0
 463 0006 1A60     		str	r2, [r3]
 428:.\Generated_Source\PSoC4/UART_SPI_UART.c **** }
 464              		.loc 1 428 0
 465 0008 7047     		bx	lr
 466              	.L44:
 467 000a C046     		.align	2
 468              	.L43:
 469 000c C80F0640 		.word	1074139080
 470              		.cfi_endproc
 471              	.LFE7:
 472              		.size	UART_SpiUartDisableIntRx, .-UART_SpiUartDisableIntRx
 473              		.section	.text.UART_SpiUartDisableIntTx,"ax",%progbits
 474              		.align	1
 475              		.global	UART_SpiUartDisableIntTx
 476              		.code	16
 477              		.thumb_func
 478              		.type	UART_SpiUartDisableIntTx, %function
 479              	UART_SpiUartDisableIntTx:
 480              	.LFB8:
 446:.\Generated_Source\PSoC4/UART_SPI_UART.c **** {
 481              		.loc 1 446 0
 482              		.cfi_startproc
 449:.\Generated_Source\PSoC4/UART_SPI_UART.c ****     intSourceMask = UART_GetTxInterruptMode();
 483              		.loc 1 449 0
 484 0000 024B     		ldr	r3, .L46
 485              		.loc 1 451 0
 486 0002 0022     		mov	r2, #0
 449:.\Generated_Source\PSoC4/UART_SPI_UART.c ****     intSourceMask = UART_GetTxInterruptMode();
 487              		.loc 1 449 0
 488 0004 1868     		ldr	r0, [r3]
 489              	.LVL32:
 452:.\Generated_Source\PSoC4/UART_SPI_UART.c **** 
 453:.\Generated_Source\PSoC4/UART_SPI_UART.c ****     return(intSourceMask);
 454:.\Generated_Source\PSoC4/UART_SPI_UART.c **** }
 490              		.loc 1 454 0
 491              		@ sp needed
 451:.\Generated_Source\PSoC4/UART_SPI_UART.c ****     UART_SetTxInterruptMode(UART_NO_INTR_SOURCES);
 492              		.loc 1 451 0
 493 0006 1A60     		str	r2, [r3]
 494              		.loc 1 454 0
 495 0008 7047     		bx	lr
 496              	.L47:
 497 000a C046     		.align	2
 498              	.L46:
 499 000c 880F0640 		.word	1074139016
 500              		.cfi_endproc
 501              	.LFE8:
 502              		.size	UART_SpiUartDisableIntTx, .-UART_SpiUartDisableIntTx
 503              		.comm	UART_txBufferInternal,64,1
 504              		.comm	UART_rxBufferInternal,65,1
 505              		.comm	UART_txBufferTail,4,4
 506              		.comm	UART_txBufferHead,4,4
 507              		.comm	UART_rxBufferOverflow,1,1
 508              		.comm	UART_rxBufferTail,4,4
 509              		.comm	UART_rxBufferHead,4,4
ARM GAS  C:\Users\kbuchi\AppData\Local\Temp\cc2E3m3W.s 			page 19


 510              		.text
 511              	.Letext0:
 512              		.file 2 "Generated_Source\\PSoC4/cytypes.h"