ARM GAS  C:\Users\kbuchi\AppData\Local\Temp\cclBZsNo.s 			page 1


   1              		.cpu cortex-m0
   2              		.fpu softvfp
   3              		.eabi_attribute 20, 1
   4              		.eabi_attribute 21, 1
   5              		.eabi_attribute 23, 3
   6              		.eabi_attribute 24, 1
   7              		.eabi_attribute 25, 1
   8              		.eabi_attribute 26, 1
   9              		.eabi_attribute 30, 4
  10              		.eabi_attribute 34, 0
  11              		.eabi_attribute 18, 4
  12              		.code	16
  13              		.file	"UART_Btldr.c"
  14              		.text
  15              	.Ltext0:
  16              		.cfi_sections	.debug_frame
  17              		.section	.text.CyBtldrCommStart,"ax",%progbits
  18              		.align	1
  19              		.global	CyBtldrCommStart
  20              		.code	16
  21              		.thumb_func
  22              		.type	CyBtldrCommStart, %function
  23              	CyBtldrCommStart:
  24              	.LFB33:
  25              		.file 1 ".\\UART_Btldr.c"
   1:.\UART_Btldr.c **** /******************************************************************************
   2:.\UART_Btldr.c **** * Project Name		: UART_Bootloader
   3:.\UART_Btldr.c **** * File Name			: UART_Btldr.c
   4:.\UART_Btldr.c **** * Version 			: 1.0
   5:.\UART_Btldr.c **** * Device Used		: CY8C4245AXI-483
   6:.\UART_Btldr.c **** * Software Used		: PSoC Creator 3.1
   7:.\UART_Btldr.c **** * Compiler    		: ARMGCC 4.8.4, ARM RVDS Generic, ARM MDK Generic
   8:.\UART_Btldr.c **** * Related Hardware	: CY8CKIT-049-42xx PSoC 4 Prototyping Kit 
   9:.\UART_Btldr.c **** *
  10:.\UART_Btldr.c **** ********************************************************************************
  11:.\UART_Btldr.c **** * Copyright (2015), Cypress Semiconductor Corporation. All Rights Reserved.
  12:.\UART_Btldr.c **** ********************************************************************************
  13:.\UART_Btldr.c **** * This software is owned by Cypress Semiconductor Corporation (Cypress)
  14:.\UART_Btldr.c **** * and is protected by and subject to worldwide patent protection (United
  15:.\UART_Btldr.c **** * States and foreign), United States copyright laws and international treaty
  16:.\UART_Btldr.c **** * provisions. Cypress hereby grants to licensee a personal, non-exclusive,
  17:.\UART_Btldr.c **** * non-transferable license to copy, use, modify, create derivative works of,
  18:.\UART_Btldr.c **** * and compile the Cypress Source Code and derivative works for the sole
  19:.\UART_Btldr.c **** * purpose of creating custom software in support of licensee product to be
  20:.\UART_Btldr.c **** * used only in conjunction with a Cypress integrated circuit as specified in
  21:.\UART_Btldr.c **** * the applicable agreement. Any reproduction, modification, translation,
  22:.\UART_Btldr.c **** * compilation, or representation of this software except as specified above 
  23:.\UART_Btldr.c **** * is prohibited without the express written permission of Cypress.
  24:.\UART_Btldr.c **** *
  25:.\UART_Btldr.c **** * Disclaimer: CYPRESS MAKES NO WARRANTY OF ANY KIND, EXPRESS OR IMPLIED, WITH 
  26:.\UART_Btldr.c **** * REGARD TO THIS MATERIAL, INCLUDING, BUT NOT LIMITED TO, THE IMPLIED 
  27:.\UART_Btldr.c **** * WARRANTIES OF MERCHANTABILITY AND FITNESS FOR A PARTICULAR PURPOSE.
  28:.\UART_Btldr.c **** * Cypress reserves the right to make changes without further notice to the 
  29:.\UART_Btldr.c **** * materials described herein. Cypress does not assume any liability arising out 
  30:.\UART_Btldr.c **** * of the application or use of any product or circuit described herein. Cypress 
  31:.\UART_Btldr.c **** * does not authorize its products for use as critical components in life-support 
  32:.\UART_Btldr.c **** * systems where a malfunction or failure may reasonably be expected to result in 
ARM GAS  C:\Users\kbuchi\AppData\Local\Temp\cclBZsNo.s 			page 2


  33:.\UART_Btldr.c **** * significant injury to the user. The inclusion of Cypress' product in a life-
  34:.\UART_Btldr.c **** * support systems application implies that the manufacturer assumes all risk of 
  35:.\UART_Btldr.c **** * such use and in doing so indemnifies Cypress against all charges. 
  36:.\UART_Btldr.c **** *
  37:.\UART_Btldr.c **** * Use of this Software may be limited by and subject to the applicable Cypress
  38:.\UART_Btldr.c **** * software license agreement. 
  39:.\UART_Btldr.c **** *******************************************************************************/
  40:.\UART_Btldr.c **** /*******************************************************************************
  41:.\UART_Btldr.c **** * Description:
  42:.\UART_Btldr.c **** * This file contains the bootloader communication functions implemented using 
  43:.\UART_Btldr.c **** * UART. Some portion of this code depends on the code placed in UART receive 
  44:.\UART_Btldr.c **** * interrupt routine in main.c file.
  45:.\UART_Btldr.c **** ********************************************************************************/
  46:.\UART_Btldr.c **** 
  47:.\UART_Btldr.c **** #include "UART.h" 
  48:.\UART_Btldr.c **** #include "project.h"
  49:.\UART_Btldr.c **** 
  50:.\UART_Btldr.c **** /* Byte to Byte time out in ms for detecting end of block data from host*/
  51:.\UART_Btldr.c **** #define BYTE2BYTE_TIME_OUT 2
  52:.\UART_Btldr.c **** 
  53:.\UART_Btldr.c **** #define BTLDR_SIZEOF_READ_BUFFER 0xff
  54:.\UART_Btldr.c **** #define BTLDR_SIZEOF_WRITE_BUFFER 0xff
  55:.\UART_Btldr.c **** #define END_OF_PACKET 0x17
  56:.\UART_Btldr.c **** 
  57:.\UART_Btldr.c **** /***************************************
  58:.\UART_Btldr.c **** *Global variables
  59:.\UART_Btldr.c **** ***************************************/
  60:.\UART_Btldr.c **** 
  61:.\UART_Btldr.c **** /* UART receive data count variable  */
  62:.\UART_Btldr.c **** volatile uint16 receivedDataCount=0;
  63:.\UART_Btldr.c **** 
  64:.\UART_Btldr.c **** /*******************************************************************************
  65:.\UART_Btldr.c **** * Function Name: CyBtldrCommStart
  66:.\UART_Btldr.c **** ********************************************************************************
  67:.\UART_Btldr.c **** *
  68:.\UART_Btldr.c **** * Summary:
  69:.\UART_Btldr.c **** *  Starts the UART communication component 
  70:.\UART_Btldr.c **** *
  71:.\UART_Btldr.c **** * Parameters:  
  72:.\UART_Btldr.c **** *  void
  73:.\UART_Btldr.c **** *
  74:.\UART_Btldr.c **** * Return: 
  75:.\UART_Btldr.c **** *  void 
  76:.\UART_Btldr.c **** *
  77:.\UART_Btldr.c **** * Side Effects:
  78:.\UART_Btldr.c **** *   None  
  79:.\UART_Btldr.c **** *
  80:.\UART_Btldr.c **** *******************************************************************************/
  81:.\UART_Btldr.c **** void CyBtldrCommStart(void)
  82:.\UART_Btldr.c **** {        
  26              		.loc 1 82 0
  27              		.cfi_startproc
  28 0000 08B5     		push	{r3, lr}
  29              		.cfi_def_cfa_offset 8
  30              		.cfi_offset 3, -8
  31              		.cfi_offset 14, -4
  83:.\UART_Btldr.c **** 	/* Start UART component and clear the TX,RX buffers */
ARM GAS  C:\Users\kbuchi\AppData\Local\Temp\cclBZsNo.s 			page 3


  84:.\UART_Btldr.c **** 	UART_Start();
  32              		.loc 1 84 0
  33 0002 FFF7FEFF 		bl	UART_Start
  34              	.LVL0:
  85:.\UART_Btldr.c **** 	UART_SpiUartClearRxBuffer();
  86:.\UART_Btldr.c **** 	UART_SpiUartClearTxBuffer();
  87:.\UART_Btldr.c **** }
  35              		.loc 1 87 0
  36              		@ sp needed
  85:.\UART_Btldr.c **** 	UART_SpiUartClearRxBuffer();
  37              		.loc 1 85 0
  38 0006 FFF7FEFF 		bl	UART_SpiUartClearRxBuffer
  39              	.LVL1:
  86:.\UART_Btldr.c **** 	UART_SpiUartClearTxBuffer();
  40              		.loc 1 86 0
  41 000a FFF7FEFF 		bl	UART_SpiUartClearTxBuffer
  42              	.LVL2:
  43              		.loc 1 87 0
  44 000e 08BD     		pop	{r3, pc}
  45              		.cfi_endproc
  46              	.LFE33:
  47              		.size	CyBtldrCommStart, .-CyBtldrCommStart
  48              		.section	.text.CyBtldrCommStop,"ax",%progbits
  49              		.align	1
  50              		.global	CyBtldrCommStop
  51              		.code	16
  52              		.thumb_func
  53              		.type	CyBtldrCommStop, %function
  54              	CyBtldrCommStop:
  55              	.LFB34:
  88:.\UART_Btldr.c **** 
  89:.\UART_Btldr.c **** /*******************************************************************************
  90:.\UART_Btldr.c **** * Function Name: CyBtldrCommStop
  91:.\UART_Btldr.c **** ********************************************************************************
  92:.\UART_Btldr.c **** *
  93:.\UART_Btldr.c **** * Summary:
  94:.\UART_Btldr.c **** *  Disable the component.
  95:.\UART_Btldr.c **** *
  96:.\UART_Btldr.c **** * Parameters:  
  97:.\UART_Btldr.c **** *  void 
  98:.\UART_Btldr.c **** *
  99:.\UART_Btldr.c **** * Return: 
 100:.\UART_Btldr.c **** *  void 
 101:.\UART_Btldr.c **** *
 102:.\UART_Btldr.c **** *******************************************************************************/
 103:.\UART_Btldr.c **** void CyBtldrCommStop(void) 
 104:.\UART_Btldr.c **** {
  56              		.loc 1 104 0
  57              		.cfi_startproc
  58 0000 08B5     		push	{r3, lr}
  59              		.cfi_def_cfa_offset 8
  60              		.cfi_offset 3, -8
  61              		.cfi_offset 14, -4
 105:.\UART_Btldr.c ****     /* Stop UART */
 106:.\UART_Btldr.c ****     UART_Stop();
  62              		.loc 1 106 0
  63 0002 FFF7FEFF 		bl	UART_Stop
ARM GAS  C:\Users\kbuchi\AppData\Local\Temp\cclBZsNo.s 			page 4


  64              	.LVL3:
 107:.\UART_Btldr.c **** }
  65              		.loc 1 107 0
  66              		@ sp needed
  67 0006 08BD     		pop	{r3, pc}
  68              		.cfi_endproc
  69              	.LFE34:
  70              		.size	CyBtldrCommStop, .-CyBtldrCommStop
  71              		.section	.text.CyBtldrCommReset,"ax",%progbits
  72              		.align	1
  73              		.global	CyBtldrCommReset
  74              		.code	16
  75              		.thumb_func
  76              		.type	CyBtldrCommReset, %function
  77              	CyBtldrCommReset:
  78              	.LFB35:
 108:.\UART_Btldr.c **** 
 109:.\UART_Btldr.c **** /*******************************************************************************
 110:.\UART_Btldr.c **** * Function Name: CyBtldrCommReset
 111:.\UART_Btldr.c **** ********************************************************************************
 112:.\UART_Btldr.c **** *
 113:.\UART_Btldr.c **** * Summary:
 114:.\UART_Btldr.c **** *  Resets the receive and transmit communication Buffers.
 115:.\UART_Btldr.c **** *
 116:.\UART_Btldr.c **** * Parameters:  
 117:.\UART_Btldr.c **** *  void 
 118:.\UART_Btldr.c **** *
 119:.\UART_Btldr.c **** * Return: 
 120:.\UART_Btldr.c **** *  void 
 121:.\UART_Btldr.c **** *
 122:.\UART_Btldr.c **** * Side Effects:
 123:.\UART_Btldr.c **** *  
 124:.\UART_Btldr.c **** *******************************************************************************/
 125:.\UART_Btldr.c **** void CyBtldrCommReset(void)
 126:.\UART_Btldr.c **** {
  79              		.loc 1 126 0
  80              		.cfi_startproc
  81 0000 08B5     		push	{r3, lr}
  82              		.cfi_def_cfa_offset 8
  83              		.cfi_offset 3, -8
  84              		.cfi_offset 14, -4
 127:.\UART_Btldr.c ****     /* Clear RX and TX buffers */
 128:.\UART_Btldr.c ****     UART_SpiUartClearRxBuffer();
  85              		.loc 1 128 0
  86 0002 FFF7FEFF 		bl	UART_SpiUartClearRxBuffer
  87              	.LVL4:
 129:.\UART_Btldr.c ****     UART_SpiUartClearTxBuffer();
 130:.\UART_Btldr.c **** }
  88              		.loc 1 130 0
  89              		@ sp needed
 129:.\UART_Btldr.c ****     UART_SpiUartClearTxBuffer();
  90              		.loc 1 129 0
  91 0006 FFF7FEFF 		bl	UART_SpiUartClearTxBuffer
  92              	.LVL5:
  93              		.loc 1 130 0
  94 000a 08BD     		pop	{r3, pc}
  95              		.cfi_endproc
ARM GAS  C:\Users\kbuchi\AppData\Local\Temp\cclBZsNo.s 			page 5


  96              	.LFE35:
  97              		.size	CyBtldrCommReset, .-CyBtldrCommReset
  98              		.section	.text.CyBtldrCommWrite,"ax",%progbits
  99              		.align	1
 100              		.global	CyBtldrCommWrite
 101              		.code	16
 102              		.thumb_func
 103              		.type	CyBtldrCommWrite, %function
 104              	CyBtldrCommWrite:
 105              	.LFB36:
 131:.\UART_Btldr.c **** 
 132:.\UART_Btldr.c **** /*******************************************************************************
 133:.\UART_Btldr.c **** * Function Name: CyBtldrCommWrite
 134:.\UART_Btldr.c **** ********************************************************************************
 135:.\UART_Btldr.c **** *
 136:.\UART_Btldr.c **** * Summary:
 137:.\UART_Btldr.c **** *  Allows the caller to write data to the bootloader host. This function uses 
 138:.\UART_Btldr.c **** * a block write function for writing data using UART communication component. 
 139:.\UART_Btldr.c **** *
 140:.\UART_Btldr.c **** * Parameters:
 141:.\UART_Btldr.c **** *  pData:    A pointer to the block of data to send to the device
 142:.\UART_Btldr.c **** *  size:     The number of bytes to write.
 143:.\UART_Btldr.c **** *  count:    Pointer to an unsigned short variable to write the number of
 144:.\UART_Btldr.c **** *             bytes actually written.
 145:.\UART_Btldr.c **** *  timeOut:  Number of units to wait before returning because of a timeout.
 146:.\UART_Btldr.c **** *
 147:.\UART_Btldr.c **** * Return: 
 148:.\UART_Btldr.c **** *   cystatus: This function will return CYRET_SUCCESS if data is sent successfully.
 149:.\UART_Btldr.c **** *
 150:.\UART_Btldr.c **** * Side Effects:
 151:.\UART_Btldr.c **** *  This function should be called after command was received .
 152:.\UART_Btldr.c **** *
 153:.\UART_Btldr.c **** *******************************************************************************/
 154:.\UART_Btldr.c **** cystatus CyBtldrCommWrite(uint8 * pData, uint16 Size, uint16 * Count, uint8 TimeOut)
 155:.\UART_Btldr.c **** {
 106              		.loc 1 155 0
 107              		.cfi_startproc
 108              	.LVL6:
 109 0000 70B5     		push	{r4, r5, r6, lr}
 110              		.cfi_def_cfa_offset 16
 111              		.cfi_offset 4, -16
 112              		.cfi_offset 5, -12
 113              		.cfi_offset 6, -8
 114              		.cfi_offset 14, -4
 156:.\UART_Btldr.c ****     cystatus status = CYRET_EMPTY;
 157:.\UART_Btldr.c **** 	
 158:.\UART_Btldr.c ****     uint8 timeOutms = TimeOut; /* This timeout is not used in this function, defined to avoid compi
 159:.\UART_Btldr.c **** 	timeOutms += 10;
 160:.\UART_Btldr.c **** 	
 161:.\UART_Btldr.c ****    	receivedDataCount=0;
 115              		.loc 1 161 0
 116 0002 054B     		ldr	r3, .L5
 117              	.LVL7:
 155:.\UART_Btldr.c **** {
 118              		.loc 1 155 0
 119 0004 0D1C     		mov	r5, r1
 120 0006 161C     		mov	r6, r2
ARM GAS  C:\Users\kbuchi\AppData\Local\Temp\cclBZsNo.s 			page 6


 121              		.loc 1 161 0
 122 0008 0024     		mov	r4, #0
 162:.\UART_Btldr.c ****     
 163:.\UART_Btldr.c **** 	/* Write TX data using blocking function */
 164:.\UART_Btldr.c **** 	UART_SpiUartPutArray(pData, (uint8)Size);
 123              		.loc 1 164 0
 124 000a C9B2     		uxtb	r1, r1
 125              	.LVL8:
 161:.\UART_Btldr.c ****    	receivedDataCount=0;
 126              		.loc 1 161 0
 127 000c 1C80     		strh	r4, [r3]
 165:.\UART_Btldr.c **** 	
 166:.\UART_Btldr.c **** 	/* Return success code */
 167:.\UART_Btldr.c **** 	*Count = Size;
 168:.\UART_Btldr.c **** 	status = CYRET_SUCCESS;
 169:.\UART_Btldr.c **** 	
 170:.\UART_Btldr.c ****     return status;
 171:.\UART_Btldr.c **** }
 128              		.loc 1 171 0
 129              		@ sp needed
 164:.\UART_Btldr.c **** 	UART_SpiUartPutArray(pData, (uint8)Size);
 130              		.loc 1 164 0
 131 000e FFF7FEFF 		bl	UART_SpiUartPutArray
 132              	.LVL9:
 167:.\UART_Btldr.c **** 	*Count = Size;
 133              		.loc 1 167 0
 134 0012 3580     		strh	r5, [r6]
 135              	.LVL10:
 136              		.loc 1 171 0
 137 0014 201C     		mov	r0, r4
 138              	.LVL11:
 139 0016 70BD     		pop	{r4, r5, r6, pc}
 140              	.L6:
 141              		.align	2
 142              	.L5:
 143 0018 00000000 		.word	.LANCHOR0
 144              		.cfi_endproc
 145              	.LFE36:
 146              		.size	CyBtldrCommWrite, .-CyBtldrCommWrite
 147              		.section	.text.CyBtldrCommRead,"ax",%progbits
 148              		.align	1
 149              		.global	CyBtldrCommRead
 150              		.code	16
 151              		.thumb_func
 152              		.type	CyBtldrCommRead, %function
 153              	CyBtldrCommRead:
 154              	.LFB37:
 172:.\UART_Btldr.c **** 
 173:.\UART_Btldr.c **** /*******************************************************************************
 174:.\UART_Btldr.c **** * Function Name: CyBtldrCommRead
 175:.\UART_Btldr.c **** ********************************************************************************
 176:.\UART_Btldr.c **** *
 177:.\UART_Btldr.c **** * Summary:
 178:.\UART_Btldr.c **** *  Receives the command. 
 179:.\UART_Btldr.c **** *
 180:.\UART_Btldr.c **** * Parameters:  
 181:.\UART_Btldr.c **** *  pData:    A pointer to the area to store the block of data received
ARM GAS  C:\Users\kbuchi\AppData\Local\Temp\cclBZsNo.s 			page 7


 182:.\UART_Btldr.c **** *             from the device.
 183:.\UART_Btldr.c **** *  size:     Maximum size of the read buffer
 184:.\UART_Btldr.c **** *  count:    Pointer to an unsigned short variable to write the number
 185:.\UART_Btldr.c **** *             of bytes actually read.
 186:.\UART_Btldr.c **** *  timeOut:  Number of units to wait before returning because of a timeOut.
 187:.\UART_Btldr.c **** *            Timeout is measured in 10s of ms.
 188:.\UART_Btldr.c **** *
 189:.\UART_Btldr.c **** * Return: 
 190:.\UART_Btldr.c **** *  cystatus: This function will return CYRET_SUCCESS if at least one byte is received
 191:.\UART_Btldr.c **** *			 successfully within the timeout interval. If no data is received this 
 192:.\UART_Btldr.c **** *			 function will return CYRET_EMPTY.
 193:.\UART_Btldr.c **** *
 194:.\UART_Btldr.c **** * Theory: 
 195:.\UART_Btldr.c **** *  'receivedDataCount' is updated with number of bytes received in the UART RX 
 196:.\UART_Btldr.c **** *  interrupt routine. This variable is used to check whether some data is received 
 197:.\UART_Btldr.c **** *  within the timeout period specified in *.cydwr. If data is received before the timeout, 
 198:.\UART_Btldr.c **** *  the control will remain in another loop waiting for more data until no data is 
 199:.\UART_Btldr.c **** *  received for a BYTE2BYTE_TIME_OUT(2 ms) interval.
 200:.\UART_Btldr.c **** *
 201:.\UART_Btldr.c **** *  Note: Increase the BYTE2BYTE_TIME_OUT to 10 ms for baud rates less than 9600.  
 202:.\UART_Btldr.c **** * 
 203:.\UART_Btldr.c **** *  BYTE2BYTE_TIME_OUT is used for detecting timeout marking end of block data from host. 
 204:.\UART_Btldr.c **** *  This has to be set to a value which is greater than the expected maximum delay 
 205:.\UART_Btldr.c **** *  between two bytes during a block/packet transmission from the host. 
 206:.\UART_Btldr.c **** *  You have to account for the delay in hardware converters while calculating this value,
 207:.\UART_Btldr.c **** *  if you are using any USB-UART bridges.   
 208:.\UART_Btldr.c **** *******************************************************************************/
 209:.\UART_Btldr.c **** cystatus CyBtldrCommRead(uint8 * pData, uint16 Size, uint16 * Count, uint8 TimeOut)
 210:.\UART_Btldr.c **** {
 155              		.loc 1 210 0
 156              		.cfi_startproc
 157              	.LVL12:
 158 0000 F0B5     		push	{r4, r5, r6, r7, lr}
 159              		.cfi_def_cfa_offset 20
 160              		.cfi_offset 4, -20
 161              		.cfi_offset 5, -16
 162              		.cfi_offset 6, -12
 163              		.cfi_offset 7, -8
 164              		.cfi_offset 14, -4
 211:.\UART_Btldr.c ****     uint16 cntr,dataIndexCntr;
 212:.\UART_Btldr.c ****     uint16 tempCount,oldDataCount;
 213:.\UART_Btldr.c **** 	
 214:.\UART_Btldr.c ****     cystatus status = CYRET_EMPTY;
 215:.\UART_Btldr.c **** 
 216:.\UART_Btldr.c ****     /* Check whether data is received within the timeout period. 
 217:.\UART_Btldr.c **** 	*  Timeout period is in units of 10ms.
 218:.\UART_Btldr.c **** 	*  If at least one byte is received within the timeout interval, wait for more data */
 219:.\UART_Btldr.c **** 	for (cntr = 0; cntr < TimeOut*10; cntr++)
 165              		.loc 1 219 0
 166 0002 0A27     		mov	r7, #10
 167 0004 5F43     		mul	r7, r3
 210:.\UART_Btldr.c **** {
 168              		.loc 1 210 0
 169 0006 87B0     		sub	sp, sp, #28
 170              		.cfi_def_cfa_offset 48
 210:.\UART_Btldr.c **** {
 171              		.loc 1 210 0
ARM GAS  C:\Users\kbuchi\AppData\Local\Temp\cclBZsNo.s 			page 8


 172 0008 0390     		str	r0, [sp, #12]
 173 000a 0591     		str	r1, [sp, #20]
 174 000c 151C     		mov	r5, r2
 175              		.loc 1 219 0
 176 000e 0026     		mov	r6, #0
 177              	.LVL13:
 178              	.L8:
 179 0010 2D4C     		ldr	r4, .L28
 180              		.loc 1 219 0 is_stmt 0 discriminator 1
 181 0012 BE42     		cmp	r6, r7
 182 0014 19DA     		bge	.L25
 220:.\UART_Btldr.c ****     {
 221:.\UART_Btldr.c **** 	    receivedDataCount = UART_SpiUartGetRxBufferSize();
 183              		.loc 1 221 0 is_stmt 1
 184 0016 FFF7FEFF 		bl	UART_SpiUartGetRxBufferSize
 185              	.LVL14:
 186 001a 80B2     		uxth	r0, r0
 187 001c 2080     		strh	r0, [r4]
 222:.\UART_Btldr.c **** 		
 223:.\UART_Btldr.c **** 		/* If at least one byte is received within the timeout interval enter the next loop
 224:.\UART_Btldr.c **** 		* waiting for more data reception */
 225:.\UART_Btldr.c **** 		if(receivedDataCount!=0) 
 188              		.loc 1 225 0
 189 001e 2388     		ldrh	r3, [r4]
 190 0020 002B     		cmp	r3, #0
 191 0022 0CD0     		beq	.L9
 192              	.LVL15:
 193              	.L11:
 226:.\UART_Btldr.c **** 	   	{
 227:.\UART_Btldr.c **** 			/* Wait for more data until 2 ms byte to byte time out interval receivedDataCount 
 228:.\UART_Btldr.c **** 			* variable is updated in on each data reception. If no data is received during the 
 229:.\UART_Btldr.c **** 			* last 2 ms (BYTE2BYTE_TIME_OUT) then it is considered as end of transmitted data 
 230:.\UART_Btldr.c **** 			* block (packet) from the host and the program execution will break from the data 
 231:.\UART_Btldr.c **** 			* awaiting loop with status=CYRET_SUCCESS */
 232:.\UART_Btldr.c **** 			do{
 233:.\UART_Btldr.c **** 			   	oldDataCount = receivedDataCount;
 234:.\UART_Btldr.c **** 				CyDelay(BYTE2BYTE_TIME_OUT);
 194              		.loc 1 234 0
 195 0024 0220     		mov	r0, #2
 233:.\UART_Btldr.c **** 			   	oldDataCount = receivedDataCount;
 196              		.loc 1 233 0
 197 0026 2688     		ldrh	r6, [r4]
 198              		.loc 1 234 0
 199 0028 FFF7FEFF 		bl	CyDelay
 200              	.LVL16:
 235:.\UART_Btldr.c **** 				receivedDataCount = UART_SpiUartGetRxBufferSize();			    
 201              		.loc 1 235 0
 202 002c FFF7FEFF 		bl	UART_SpiUartGetRxBufferSize
 203              	.LVL17:
 204 0030 80B2     		uxth	r0, r0
 205 0032 2080     		strh	r0, [r4]
 236:.\UART_Btldr.c **** 			}while(receivedDataCount > oldDataCount);
 206              		.loc 1 236 0
 207 0034 2388     		ldrh	r3, [r4]
 233:.\UART_Btldr.c **** 			   	oldDataCount = receivedDataCount;
 208              		.loc 1 233 0
 209 0036 B6B2     		uxth	r6, r6
ARM GAS  C:\Users\kbuchi\AppData\Local\Temp\cclBZsNo.s 			page 9


 210              	.LVL18:
 211              		.loc 1 236 0
 212 0038 B342     		cmp	r3, r6
 213 003a F3D8     		bhi	.L11
 214 003c 07E0     		b	.L26
 215              	.LVL19:
 216              	.L9:
 237:.\UART_Btldr.c **** 			status = CYRET_SUCCESS;	
 238:.\UART_Btldr.c **** 			break;
 239:.\UART_Btldr.c **** 		}
 240:.\UART_Btldr.c **** 		/* If no data is received, give a delay of 1ms and check again until the Timeout specified in .cy
 241:.\UART_Btldr.c **** 		else 
 242:.\UART_Btldr.c **** 		{
 243:.\UART_Btldr.c **** 			CyDelay(1);
 217              		.loc 1 243 0
 218 003e 0120     		mov	r0, #1
 219:.\UART_Btldr.c **** 	for (cntr = 0; cntr < TimeOut*10; cntr++)
 219              		.loc 1 219 0
 220 0040 0136     		add	r6, r6, #1
 221              	.LVL20:
 222              		.loc 1 243 0
 223 0042 FFF7FEFF 		bl	CyDelay
 224              	.LVL21:
 219:.\UART_Btldr.c **** 	for (cntr = 0; cntr < TimeOut*10; cntr++)
 225              		.loc 1 219 0
 226 0046 B6B2     		uxth	r6, r6
 227              	.LVL22:
 228 0048 E2E7     		b	.L8
 229              	.L25:
 214:.\UART_Btldr.c ****     cystatus status = CYRET_EMPTY;
 230              		.loc 1 214 0
 231 004a 0526     		mov	r6, #5
 232              	.LVL23:
 233 004c 00E0     		b	.L10
 234              	.LVL24:
 235              	.L26:
 237:.\UART_Btldr.c **** 			status = CYRET_SUCCESS;	
 236              		.loc 1 237 0
 237 004e 0026     		mov	r6, #0
 238              	.LVL25:
 239              	.L10:
 244:.\UART_Btldr.c **** 		}
 245:.\UART_Btldr.c ****     }
 246:.\UART_Btldr.c **** 	
 247:.\UART_Btldr.c **** 	/* Initialize the data read indexes and Count value*/
 248:.\UART_Btldr.c **** 	*Count = 0;
 240              		.loc 1 248 0
 241 0050 0027     		mov	r7, #0
 242 0052 2F80     		strh	r7, [r5]
 243              	.LVL26:
 244              	.L13:
 249:.\UART_Btldr.c **** 	dataIndexCntr = 0;
 250:.\UART_Btldr.c **** 	
 251:.\UART_Btldr.c **** 	/* If receivedDataCount>0 , move the received data to the pData buffer */
 252:.\UART_Btldr.c **** 	while(receivedDataCount > 0)
 245              		.loc 1 252 0 discriminator 1
 246 0054 2388     		ldrh	r3, [r4]
ARM GAS  C:\Users\kbuchi\AppData\Local\Temp\cclBZsNo.s 			page 10


 247 0056 002B     		cmp	r3, #0
 248 0058 33D0     		beq	.L18
 253:.\UART_Btldr.c **** 	{
 254:.\UART_Btldr.c **** 		tempCount=receivedDataCount;
 249              		.loc 1 254 0
 250 005a 2388     		ldrh	r3, [r4]
 251 005c 9BB2     		uxth	r3, r3
 252 005e 0193     		str	r3, [sp, #4]
 253              	.LVL27:
 255:.\UART_Btldr.c **** 		*Count  =(*Count ) + tempCount;
 254              		.loc 1 255 0
 255 0060 0199     		ldr	r1, [sp, #4]
 256 0062 2B88     		ldrh	r3, [r5]
 257 0064 5A18     		add	r2, r3, r1
 256:.\UART_Btldr.c **** 		
 257:.\UART_Btldr.c **** 		/* Check if buffer overflow will occur before moving the data */
 258:.\UART_Btldr.c **** 		if(*Count < Size)
 258              		.loc 1 258 0
 259 0066 0599     		ldr	r1, [sp, #20]
 255:.\UART_Btldr.c **** 		*Count  =(*Count ) + tempCount;
 260              		.loc 1 255 0
 261 0068 92B2     		uxth	r2, r2
 262 006a 2A80     		strh	r2, [r5]
 263              		.loc 1 258 0
 264 006c 8A42     		cmp	r2, r1
 265 006e 21D2     		bcs	.L14
 266 0070 019A     		ldr	r2, [sp, #4]
 267 0072 BB18     		add	r3, r7, r2
 268 0074 9BB2     		uxth	r3, r3
 269 0076 0293     		str	r3, [sp, #8]
 270              	.L15:
 271              	.LVL28:
 259:.\UART_Btldr.c **** 		{
 260:.\UART_Btldr.c **** 			for (cntr = 0;((cntr < tempCount) ); cntr++)
 272              		.loc 1 260 0 discriminator 1
 273 0078 0299     		ldr	r1, [sp, #8]
 274 007a 8F42     		cmp	r7, r1
 275 007c 09D0     		beq	.L27
 261:.\UART_Btldr.c **** 			{
 262:.\UART_Btldr.c **** 				/* Read the data and move it to the pData buffer */
 263:.\UART_Btldr.c **** 				pData[dataIndexCntr++] = UART_SpiUartReadRxData();   
 276              		.loc 1 263 0 discriminator 2
 277 007e 7B1C     		add	r3, r7, #1
 278 0080 9BB2     		uxth	r3, r3
 279 0082 0493     		str	r3, [sp, #16]
 280              	.LVL29:
 281 0084 039B     		ldr	r3, [sp, #12]
 282 0086 DF19     		add	r7, r3, r7
 283 0088 FFF7FEFF 		bl	UART_SpiUartReadRxData
 284              	.LVL30:
 285 008c 3870     		strb	r0, [r7]
 286              	.LVL31:
 287 008e 049F     		ldr	r7, [sp, #16]
 288 0090 F2E7     		b	.L15
 289              	.LVL32:
 290              	.L27:
 264:.\UART_Btldr.c **** 			}
ARM GAS  C:\Users\kbuchi\AppData\Local\Temp\cclBZsNo.s 			page 11


 265:.\UART_Btldr.c **** 			/* Disable the interrupts before updating the receivedDataCount and 
 266:.\UART_Btldr.c **** 			*  re-enable the interrupts after updating */
 267:.\UART_Btldr.c **** 			CyGlobalIntDisable;
 291              		.loc 1 267 0
 292              	@ 267 ".\UART_Btldr.c" 1
 293 0092 72B6     		CPSID   i
 294              	@ 0 "" 2
 268:.\UART_Btldr.c **** 			
 269:.\UART_Btldr.c **** 			/* subtract the read data count from received data count */
 270:.\UART_Btldr.c **** 			receivedDataCount=receivedDataCount-tempCount;
 295              		.loc 1 270 0
 296              		.code	16
 297 0094 2388     		ldrh	r3, [r4]
 298 0096 019A     		ldr	r2, [sp, #4]
 299 0098 9B1A     		sub	r3, r3, r2
 300 009a 9BB2     		uxth	r3, r3
 301 009c 2380     		strh	r3, [r4]
 271:.\UART_Btldr.c **** 			
 272:.\UART_Btldr.c **** 			CyGlobalIntEnable;
 302              		.loc 1 272 0
 303              	@ 272 ".\UART_Btldr.c" 1
 304 009e 62B6     		CPSIE   i
 305              	@ 0 "" 2
 273:.\UART_Btldr.c **** 			
 274:.\UART_Btldr.c **** 			/* Check if the last data received is End of packet(0x17) 
 275:.\UART_Btldr.c **** 			*  If not wait for additional 5ms */
 276:.\UART_Btldr.c **** 			if(pData[dataIndexCntr-1]!= END_OF_PACKET)
 306              		.loc 1 276 0
 307              		.code	16
 308 00a0 039A     		ldr	r2, [sp, #12]
 309 00a2 5318     		add	r3, r2, r1
 310 00a4 013B     		sub	r3, r3, #1
 311 00a6 1B78     		ldrb	r3, [r3]
 312 00a8 172B     		cmp	r3, #23
 313 00aa 08D0     		beq	.L17
 277:.\UART_Btldr.c **** 			    CyDelay(5);
 314              		.loc 1 277 0
 315 00ac 0520     		mov	r0, #5
 316 00ae FFF7FEFF 		bl	CyDelay
 317              	.LVL33:
 318 00b2 04E0     		b	.L17
 319              	.LVL34:
 320              	.L14:
 278:.\UART_Btldr.c **** 	 	}	
 279:.\UART_Btldr.c **** 		
 280:.\UART_Btldr.c **** 		/* If there is no space to move data, break from the loop */
 281:.\UART_Btldr.c **** 		else
 282:.\UART_Btldr.c **** 		{
 283:.\UART_Btldr.c **** 			*Count=(*Count)-tempCount;
 321              		.loc 1 283 0
 322 00b4 2B80     		strh	r3, [r5]
 284:.\UART_Btldr.c **** 			UART_SpiUartClearRxBuffer();
 323              		.loc 1 284 0
 324 00b6 FFF7FEFF 		bl	UART_SpiUartClearRxBuffer
 325              	.LVL35:
 285:.\UART_Btldr.c **** 			status = CYRET_EMPTY;
 326              		.loc 1 285 0
ARM GAS  C:\Users\kbuchi\AppData\Local\Temp\cclBZsNo.s 			page 12


 327 00ba 0526     		mov	r6, #5
 286:.\UART_Btldr.c **** 			break;
 328              		.loc 1 286 0
 329 00bc 01E0     		b	.L18
 330              	.LVL36:
 331              	.L17:
 263:.\UART_Btldr.c **** 				pData[dataIndexCntr++] = UART_SpiUartReadRxData();   
 332              		.loc 1 263 0 discriminator 1
 333 00be 029F     		ldr	r7, [sp, #8]
 334 00c0 C8E7     		b	.L13
 335              	.LVL37:
 336              	.L18:
 287:.\UART_Btldr.c **** 		}
 288:.\UART_Btldr.c **** 	}
 289:.\UART_Btldr.c **** 	return status;
 290:.\UART_Btldr.c **** }
 337              		.loc 1 290 0
 338 00c2 301C     		mov	r0, r6
 339 00c4 07B0     		add	sp, sp, #28
 340              		@ sp needed
 341              	.LVL38:
 342              	.LVL39:
 343 00c6 F0BD     		pop	{r4, r5, r6, r7, pc}
 344              	.L29:
 345              		.align	2
 346              	.L28:
 347 00c8 00000000 		.word	.LANCHOR0
 348              		.cfi_endproc
 349              	.LFE37:
 350              		.size	CyBtldrCommRead, .-CyBtldrCommRead
 351              		.global	receivedDataCount
 352              		.bss
 353              		.align	1
 354              		.set	.LANCHOR0,. + 0
 355              		.type	receivedDataCount, %object
 356              		.size	receivedDataCount, 2
 357              	receivedDataCount:
 358 0000 0000     		.space	2
 359              		.text
 360              	.Letext0:
 361              		.file 2 "Generated_Source\\PSoC4/cytypes.h"
 362              		.file 3 "Generated_Source\\PSoC4/UART.h"
 363              		.file 4 "Generated_Source\\PSoC4/UART_SPI_UART.h"
 364              		.file 5 "Generated_Source\\PSoC4/CyLib.h"